

Microchip MPLAB XC8 Assembler V2.32 build 20210201212658 
                                                                                               Tue Jul 13 14:36:51 2021

Microchip MPLAB XC8 C Compiler v2.32 (Free license) build 20210201212658 Og1 
     1                           	processor	16F15244
     2                           	pagewidth 120
     3                           	opt	flic
     4                           	psect	idataBANK0,global,class=CODE,delta=2,noexec
     5                           	psect	stringtext1,global,class=STRCODE,delta=2,noexec
     6                           	psect	nvBANK0,global,class=BANK0,space=1,delta=1,noexec
     7                           	psect	stringtext2,global,class=STRCODE,delta=2,noexec
     8                           	psect	stringtext3,global,class=STRCODE,delta=2,noexec
     9                           	psect	cinit,global,class=CODE,merge=1,delta=2
    10                           	psect	bssCOMMON,global,class=COMMON,space=1,delta=1,noexec
    11                           	psect	bssBANK0,global,class=BANK0,space=1,delta=1,noexec
    12                           	psect	dataBANK0,global,class=BANK0,space=1,delta=1,noexec
    13                           	psect	bssBANK1,global,class=BANK1,space=1,delta=1,noexec
    14                           	psect	clrtext,global,class=CODE,delta=2
    15                           	psect	cstackCOMMON,global,class=COMMON,space=1,delta=1,noexec
    16                           	psect	cstackBANK0,global,class=BANK0,space=1,delta=1,noexec
    17                           	psect	maintext,global,class=CODE,merge=1,split=1,delta=2
    18                           	psect	text1,local,class=CODE,merge=1,delta=2
    19                           	psect	text2,local,class=CODE,merge=1,delta=2,group=3
    20                           	psect	text3,local,class=CODE,merge=1,delta=2
    21                           	psect	text4,local,class=CODE,merge=1,delta=2
    22                           	psect	text5,local,class=CODE,merge=1,delta=2,group=3
    23                           	psect	text6,local,class=CODE,merge=1,delta=2,group=1
    24                           	psect	text7,local,class=CODE,merge=1,delta=2,group=1
    25                           	psect	text8,local,class=CODE,merge=1,delta=2,group=3
    26                           	psect	text9,local,class=CODE,merge=1,delta=2
    27                           	psect	text10,local,class=CODE,merge=1,delta=2
    28                           	psect	text11,local,class=CODE,merge=1,delta=2
    29                           	psect	text12,local,class=CODE,merge=1,delta=2
    30                           	psect	text13,local,class=CODE,merge=1,delta=2
    31                           	psect	text14,local,class=CODE,merge=1,delta=2
    32                           	psect	text15,local,class=CODE,merge=1,delta=2
    33                           	psect	text16,local,class=CODE,merge=1,delta=2
    34                           	psect	text17,local,class=CODE,merge=1,delta=2
    35                           	psect	text18,local,class=CODE,merge=1,delta=2
    36                           	psect	text19,local,class=CODE,merge=1,delta=2
    37                           	psect	text20,local,class=CODE,merge=1,delta=2
    38                           	psect	text21,local,class=CODE,merge=1,delta=2
    39                           	psect	text22,local,class=CODE,merge=1,delta=2
    40                           	psect	text23,local,class=CODE,merge=1,delta=2
    41                           	psect	text24,local,class=CODE,merge=1,delta=2
    42                           	psect	intentry,global,class=CODE,delta=2
    43                           	psect	text26,local,class=CODE,merge=1,delta=2
    44                           	psect	text27,local,class=CODE,merge=1,delta=2
    45                           	psect	text28,local,class=CODE,merge=1,delta=2
    46                           	psect	text29,local,class=CODE,merge=1,delta=2
    47                           	psect	text30,local,class=CODE,merge=1,delta=2
    48                           	psect	text31,local,class=CODE,merge=1,delta=2
    49                           	psect	text32,local,class=CODE,merge=1,delta=2
    50                           	psect	text33,local,class=CODE,merge=1,delta=2
    51                           	psect	text34,local,class=CODE,merge=1,delta=2
    52                           	psect	config,global,abs,ovrld,class=CONFIG,space=4,delta=2,noexec
    53                           	dabs	1,0x7E,2
    54  0000                     
    55                           ; Version 2.30
    56                           ; Generated 15/09/2020 GMT
    57                           ; 
    58                           ; Copyright © 2020, Microchip Technology Inc. and its subsidiaries ("Microchip")
    59                           ; All rights reserved.
    60                           ; 
    61                           ; This software is developed by Microchip Technology Inc. and its subsidiaries ("Microch
      +                          ip").
    62                           ; 
    63                           ; Redistribution and use in source and binary forms, with or without modification, are
    64                           ; permitted provided that the following conditions are met:
    65                           ; 
    66                           ;     1. Redistributions of source code must retain the above copyright notice, this lis
      +                          t of
    67                           ;        conditions and the following disclaimer.
    68                           ; 
    69                           ;     2. Redistributions in binary form must reproduce the above copyright notice, this 
      +                          list
    70                           ;        of conditions and the following disclaimer in the documentation and/or other
    71                           ;        materials provided with the distribution. Publication is not required when
    72                           ;        this file is used in an embedded application.
    73                           ; 
    74                           ;     3. Microchip's name may not be used to endorse or promote products derived from th
      +                          is
    75                           ;        software without specific prior written permission.
    76                           ; 
    77                           ; THIS SOFTWARE IS PROVIDED BY MICROCHIP "AS IS" AND ANY EXPRESS OR IMPLIED WARRANTIES,
    78                           ; INCLUDING, BUT NOT LIMITED TO, THE IMPLIED WARRANTIES OF MERCHANTABILITY AND FITNESS F
      +                          OR
    79                           ; PURPOSE ARE DISCLAIMED.  IN NO EVENT SHALL MICROCHIP BE LIABLE FOR ANY DIRECT, INDIREC
      +                          T,
    80                           ; INCIDENTAL, SPECIAL, EXEMPLARY, OR CONSEQUENTIAL DAMAGES (INCLUDING BUT NOT LIMITED TO
    81                           ; PROCUREMENT OF SUBSTITUTE GOODS OR SERVICES; LOSS OF USE, DATA OR PROFITS; OR BUSINESS
    82                           ; INTERRUPTION) HOWSOEVER CAUSED AND ON ANY THEORY OF LIABILITY, WHETHER IN CONTRACT, ST
      +                          RICT
    83                           ; LIABILITY, OR TORT (INCLUDING NEGLIGENCE OR OTHERWISE) ARISING IN ANY WAY OUT OF THE U
      +                          SE OF
    84                           ; THIS SOFTWARE, EVEN IF ADVISED OF THE POSSIBILITY OF SUCH DAMAGE.
    85                           ; 
    86                           ; 
    87                           ; Code-generator required, PIC16F15244 Definitions
    88                           ; 
    89                           ; SFR Addresses
    90  0000                     	;# 
    91  0001                     	;# 
    92  0002                     	;# 
    93  0003                     	;# 
    94  0004                     	;# 
    95  0005                     	;# 
    96  0006                     	;# 
    97  0007                     	;# 
    98  0008                     	;# 
    99  0009                     	;# 
   100  000A                     	;# 
   101  000B                     	;# 
   102  000C                     	;# 
   103  000D                     	;# 
   104  000E                     	;# 
   105  0012                     	;# 
   106  0013                     	;# 
   107  0014                     	;# 
   108  0018                     	;# 
   109  0019                     	;# 
   110  001A                     	;# 
   111  009A                     	;# 
   112  009B                     	;# 
   113  009B                     	;# 
   114  009C                     	;# 
   115  009D                     	;# 
   116  009E                     	;# 
   117  009F                     	;# 
   118  010C                     	;# 
   119  010D                     	;# 
   120  0119                     	;# 
   121  011A                     	;# 
   122  011B                     	;# 
   123  011B                     	;# 
   124  011C                     	;# 
   125  011D                     	;# 
   126  011E                     	;# 
   127  011F                     	;# 
   128  018C                     	;# 
   129  018D                     	;# 
   130  018E                     	;# 
   131  018F                     	;# 
   132  0190                     	;# 
   133  0191                     	;# 
   134  0192                     	;# 
   135  020C                     	;# 
   136  020D                     	;# 
   137  020E                     	;# 
   138  020E                     	;# 
   139  020F                     	;# 
   140  020F                     	;# 
   141  0210                     	;# 
   142  0210                     	;# 
   143  0211                     	;# 
   144  0211                     	;# 
   145  028C                     	;# 
   146  028C                     	;# 
   147  028D                     	;# 
   148  028D                     	;# 
   149  028E                     	;# 
   150  028F                     	;# 
   151  0290                     	;# 
   152  0291                     	;# 
   153  030C                     	;# 
   154  030C                     	;# 
   155  030D                     	;# 
   156  030E                     	;# 
   157  030F                     	;# 
   158  0310                     	;# 
   159  0310                     	;# 
   160  0311                     	;# 
   161  0312                     	;# 
   162  0313                     	;# 
   163  0314                     	;# 
   164  0314                     	;# 
   165  0315                     	;# 
   166  0316                     	;# 
   167  0318                     	;# 
   168  0318                     	;# 
   169  0319                     	;# 
   170  031A                     	;# 
   171  059C                     	;# 
   172  059C                     	;# 
   173  059D                     	;# 
   174  059D                     	;# 
   175  059E                     	;# 
   176  059F                     	;# 
   177  070C                     	;# 
   178  070D                     	;# 
   179  070E                     	;# 
   180  0716                     	;# 
   181  0717                     	;# 
   182  0718                     	;# 
   183  080C                     	;# 
   184  0811                     	;# 
   185  0813                     	;# 
   186  0814                     	;# 
   187  081A                     	;# 
   188  081A                     	;# 
   189  081B                     	;# 
   190  081C                     	;# 
   191  081C                     	;# 
   192  081D                     	;# 
   193  081E                     	;# 
   194  081F                     	;# 
   195  088E                     	;# 
   196  0890                     	;# 
   197  0891                     	;# 
   198  0892                     	;# 
   199  0893                     	;# 
   200  090C                     	;# 
   201  1E8F                     	;# 
   202  1E90                     	;# 
   203  1E91                     	;# 
   204  1E92                     	;# 
   205  1E93                     	;# 
   206  1E9C                     	;# 
   207  1EA1                     	;# 
   208  1EA2                     	;# 
   209  1EC3                     	;# 
   210  1EC5                     	;# 
   211  1EC6                     	;# 
   212  1EC7                     	;# 
   213  1ECB                     	;# 
   214  1ECB                     	;# 
   215  1ECB                     	;# 
   216  1ECC                     	;# 
   217  1ECC                     	;# 
   218  1ECC                     	;# 
   219  1F10                     	;# 
   220  1F11                     	;# 
   221  1F12                     	;# 
   222  1F14                     	;# 
   223  1F15                     	;# 
   224  1F1C                     	;# 
   225  1F1D                     	;# 
   226  1F1E                     	;# 
   227  1F1F                     	;# 
   228  1F20                     	;# 
   229  1F21                     	;# 
   230  1F22                     	;# 
   231  1F23                     	;# 
   232  1F24                     	;# 
   233  1F25                     	;# 
   234  1F26                     	;# 
   235  1F27                     	;# 
   236  1F38                     	;# 
   237  1F39                     	;# 
   238  1F3A                     	;# 
   239  1F3B                     	;# 
   240  1F3C                     	;# 
   241  1F3D                     	;# 
   242  1F3E                     	;# 
   243  1F3F                     	;# 
   244  1F43                     	;# 
   245  1F44                     	;# 
   246  1F45                     	;# 
   247  1F46                     	;# 
   248  1F47                     	;# 
   249  1F48                     	;# 
   250  1F49                     	;# 
   251  1F4A                     	;# 
   252  1F4E                     	;# 
   253  1F4F                     	;# 
   254  1F50                     	;# 
   255  1F51                     	;# 
   256  1F52                     	;# 
   257  1F53                     	;# 
   258  1F54                     	;# 
   259  1F55                     	;# 
   260  1FE4                     	;# 
   261  1FE5                     	;# 
   262  1FE6                     	;# 
   263  1FE7                     	;# 
   264  1FE8                     	;# 
   265  1FE8                     	;# 
   266  1FE9                     	;# 
   267  1FEA                     	;# 
   268  1FEB                     	;# 
   269  1FED                     	;# 
   270  1FEE                     	;# 
   271  1FEF                     	;# 
   272  0000                     	;# 
   273  0001                     	;# 
   274  0002                     	;# 
   275  0003                     	;# 
   276  0004                     	;# 
   277  0005                     	;# 
   278  0006                     	;# 
   279  0007                     	;# 
   280  0008                     	;# 
   281  0009                     	;# 
   282  000A                     	;# 
   283  000B                     	;# 
   284  000C                     	;# 
   285  000D                     	;# 
   286  000E                     	;# 
   287  0012                     	;# 
   288  0013                     	;# 
   289  0014                     	;# 
   290  0018                     	;# 
   291  0019                     	;# 
   292  001A                     	;# 
   293  009A                     	;# 
   294  009B                     	;# 
   295  009B                     	;# 
   296  009C                     	;# 
   297  009D                     	;# 
   298  009E                     	;# 
   299  009F                     	;# 
   300  010C                     	;# 
   301  010D                     	;# 
   302  0119                     	;# 
   303  011A                     	;# 
   304  011B                     	;# 
   305  011B                     	;# 
   306  011C                     	;# 
   307  011D                     	;# 
   308  011E                     	;# 
   309  011F                     	;# 
   310  018C                     	;# 
   311  018D                     	;# 
   312  018E                     	;# 
   313  018F                     	;# 
   314  0190                     	;# 
   315  0191                     	;# 
   316  0192                     	;# 
   317  020C                     	;# 
   318  020D                     	;# 
   319  020E                     	;# 
   320  020E                     	;# 
   321  020F                     	;# 
   322  020F                     	;# 
   323  0210                     	;# 
   324  0210                     	;# 
   325  0211                     	;# 
   326  0211                     	;# 
   327  028C                     	;# 
   328  028C                     	;# 
   329  028D                     	;# 
   330  028D                     	;# 
   331  028E                     	;# 
   332  028F                     	;# 
   333  0290                     	;# 
   334  0291                     	;# 
   335  030C                     	;# 
   336  030C                     	;# 
   337  030D                     	;# 
   338  030E                     	;# 
   339  030F                     	;# 
   340  0310                     	;# 
   341  0310                     	;# 
   342  0311                     	;# 
   343  0312                     	;# 
   344  0313                     	;# 
   345  0314                     	;# 
   346  0314                     	;# 
   347  0315                     	;# 
   348  0316                     	;# 
   349  0318                     	;# 
   350  0318                     	;# 
   351  0319                     	;# 
   352  031A                     	;# 
   353  059C                     	;# 
   354  059C                     	;# 
   355  059D                     	;# 
   356  059D                     	;# 
   357  059E                     	;# 
   358  059F                     	;# 
   359  070C                     	;# 
   360  070D                     	;# 
   361  070E                     	;# 
   362  0716                     	;# 
   363  0717                     	;# 
   364  0718                     	;# 
   365  080C                     	;# 
   366  0811                     	;# 
   367  0813                     	;# 
   368  0814                     	;# 
   369  081A                     	;# 
   370  081A                     	;# 
   371  081B                     	;# 
   372  081C                     	;# 
   373  081C                     	;# 
   374  081D                     	;# 
   375  081E                     	;# 
   376  081F                     	;# 
   377  088E                     	;# 
   378  0890                     	;# 
   379  0891                     	;# 
   380  0892                     	;# 
   381  0893                     	;# 
   382  090C                     	;# 
   383  1E8F                     	;# 
   384  1E90                     	;# 
   385  1E91                     	;# 
   386  1E92                     	;# 
   387  1E93                     	;# 
   388  1E9C                     	;# 
   389  1EA1                     	;# 
   390  1EA2                     	;# 
   391  1EC3                     	;# 
   392  1EC5                     	;# 
   393  1EC6                     	;# 
   394  1EC7                     	;# 
   395  1ECB                     	;# 
   396  1ECB                     	;# 
   397  1ECB                     	;# 
   398  1ECC                     	;# 
   399  1ECC                     	;# 
   400  1ECC                     	;# 
   401  1F10                     	;# 
   402  1F11                     	;# 
   403  1F12                     	;# 
   404  1F14                     	;# 
   405  1F15                     	;# 
   406  1F1C                     	;# 
   407  1F1D                     	;# 
   408  1F1E                     	;# 
   409  1F1F                     	;# 
   410  1F20                     	;# 
   411  1F21                     	;# 
   412  1F22                     	;# 
   413  1F23                     	;# 
   414  1F24                     	;# 
   415  1F25                     	;# 
   416  1F26                     	;# 
   417  1F27                     	;# 
   418  1F38                     	;# 
   419  1F39                     	;# 
   420  1F3A                     	;# 
   421  1F3B                     	;# 
   422  1F3C                     	;# 
   423  1F3D                     	;# 
   424  1F3E                     	;# 
   425  1F3F                     	;# 
   426  1F43                     	;# 
   427  1F44                     	;# 
   428  1F45                     	;# 
   429  1F46                     	;# 
   430  1F47                     	;# 
   431  1F48                     	;# 
   432  1F49                     	;# 
   433  1F4A                     	;# 
   434  1F4E                     	;# 
   435  1F4F                     	;# 
   436  1F50                     	;# 
   437  1F51                     	;# 
   438  1F52                     	;# 
   439  1F53                     	;# 
   440  1F54                     	;# 
   441  1F55                     	;# 
   442  1FE4                     	;# 
   443  1FE5                     	;# 
   444  1FE6                     	;# 
   445  1FE7                     	;# 
   446  1FE8                     	;# 
   447  1FE8                     	;# 
   448  1FE9                     	;# 
   449  1FEA                     	;# 
   450  1FEB                     	;# 
   451  1FED                     	;# 
   452  1FEE                     	;# 
   453  1FEF                     	;# 
   454  0000                     	;# 
   455  0001                     	;# 
   456  0002                     	;# 
   457  0003                     	;# 
   458  0004                     	;# 
   459  0005                     	;# 
   460  0006                     	;# 
   461  0007                     	;# 
   462  0008                     	;# 
   463  0009                     	;# 
   464  000A                     	;# 
   465  000B                     	;# 
   466  000C                     	;# 
   467  000D                     	;# 
   468  000E                     	;# 
   469  0012                     	;# 
   470  0013                     	;# 
   471  0014                     	;# 
   472  0018                     	;# 
   473  0019                     	;# 
   474  001A                     	;# 
   475  009A                     	;# 
   476  009B                     	;# 
   477  009B                     	;# 
   478  009C                     	;# 
   479  009D                     	;# 
   480  009E                     	;# 
   481  009F                     	;# 
   482  010C                     	;# 
   483  010D                     	;# 
   484  0119                     	;# 
   485  011A                     	;# 
   486  011B                     	;# 
   487  011B                     	;# 
   488  011C                     	;# 
   489  011D                     	;# 
   490  011E                     	;# 
   491  011F                     	;# 
   492  018C                     	;# 
   493  018D                     	;# 
   494  018E                     	;# 
   495  018F                     	;# 
   496  0190                     	;# 
   497  0191                     	;# 
   498  0192                     	;# 
   499  020C                     	;# 
   500  020D                     	;# 
   501  020E                     	;# 
   502  020E                     	;# 
   503  020F                     	;# 
   504  020F                     	;# 
   505  0210                     	;# 
   506  0210                     	;# 
   507  0211                     	;# 
   508  0211                     	;# 
   509  028C                     	;# 
   510  028C                     	;# 
   511  028D                     	;# 
   512  028D                     	;# 
   513  028E                     	;# 
   514  028F                     	;# 
   515  0290                     	;# 
   516  0291                     	;# 
   517  030C                     	;# 
   518  030C                     	;# 
   519  030D                     	;# 
   520  030E                     	;# 
   521  030F                     	;# 
   522  0310                     	;# 
   523  0310                     	;# 
   524  0311                     	;# 
   525  0312                     	;# 
   526  0313                     	;# 
   527  0314                     	;# 
   528  0314                     	;# 
   529  0315                     	;# 
   530  0316                     	;# 
   531  0318                     	;# 
   532  0318                     	;# 
   533  0319                     	;# 
   534  031A                     	;# 
   535  059C                     	;# 
   536  059C                     	;# 
   537  059D                     	;# 
   538  059D                     	;# 
   539  059E                     	;# 
   540  059F                     	;# 
   541  070C                     	;# 
   542  070D                     	;# 
   543  070E                     	;# 
   544  0716                     	;# 
   545  0717                     	;# 
   546  0718                     	;# 
   547  080C                     	;# 
   548  0811                     	;# 
   549  0813                     	;# 
   550  0814                     	;# 
   551  081A                     	;# 
   552  081A                     	;# 
   553  081B                     	;# 
   554  081C                     	;# 
   555  081C                     	;# 
   556  081D                     	;# 
   557  081E                     	;# 
   558  081F                     	;# 
   559  088E                     	;# 
   560  0890                     	;# 
   561  0891                     	;# 
   562  0892                     	;# 
   563  0893                     	;# 
   564  090C                     	;# 
   565  1E8F                     	;# 
   566  1E90                     	;# 
   567  1E91                     	;# 
   568  1E92                     	;# 
   569  1E93                     	;# 
   570  1E9C                     	;# 
   571  1EA1                     	;# 
   572  1EA2                     	;# 
   573  1EC3                     	;# 
   574  1EC5                     	;# 
   575  1EC6                     	;# 
   576  1EC7                     	;# 
   577  1ECB                     	;# 
   578  1ECB                     	;# 
   579  1ECB                     	;# 
   580  1ECC                     	;# 
   581  1ECC                     	;# 
   582  1ECC                     	;# 
   583  1F10                     	;# 
   584  1F11                     	;# 
   585  1F12                     	;# 
   586  1F14                     	;# 
   587  1F15                     	;# 
   588  1F1C                     	;# 
   589  1F1D                     	;# 
   590  1F1E                     	;# 
   591  1F1F                     	;# 
   592  1F20                     	;# 
   593  1F21                     	;# 
   594  1F22                     	;# 
   595  1F23                     	;# 
   596  1F24                     	;# 
   597  1F25                     	;# 
   598  1F26                     	;# 
   599  1F27                     	;# 
   600  1F38                     	;# 
   601  1F39                     	;# 
   602  1F3A                     	;# 
   603  1F3B                     	;# 
   604  1F3C                     	;# 
   605  1F3D                     	;# 
   606  1F3E                     	;# 
   607  1F3F                     	;# 
   608  1F43                     	;# 
   609  1F44                     	;# 
   610  1F45                     	;# 
   611  1F46                     	;# 
   612  1F47                     	;# 
   613  1F48                     	;# 
   614  1F49                     	;# 
   615  1F4A                     	;# 
   616  1F4E                     	;# 
   617  1F4F                     	;# 
   618  1F50                     	;# 
   619  1F51                     	;# 
   620  1F52                     	;# 
   621  1F53                     	;# 
   622  1F54                     	;# 
   623  1F55                     	;# 
   624  1FE4                     	;# 
   625  1FE5                     	;# 
   626  1FE6                     	;# 
   627  1FE7                     	;# 
   628  1FE8                     	;# 
   629  1FE8                     	;# 
   630  1FE9                     	;# 
   631  1FEA                     	;# 
   632  1FEB                     	;# 
   633  1FED                     	;# 
   634  1FEE                     	;# 
   635  1FEF                     	;# 
   636  0000                     	;# 
   637  0001                     	;# 
   638  0002                     	;# 
   639  0003                     	;# 
   640  0004                     	;# 
   641  0005                     	;# 
   642  0006                     	;# 
   643  0007                     	;# 
   644  0008                     	;# 
   645  0009                     	;# 
   646  000A                     	;# 
   647  000B                     	;# 
   648  000C                     	;# 
   649  000D                     	;# 
   650  000E                     	;# 
   651  0012                     	;# 
   652  0013                     	;# 
   653  0014                     	;# 
   654  0018                     	;# 
   655  0019                     	;# 
   656  001A                     	;# 
   657  009A                     	;# 
   658  009B                     	;# 
   659  009B                     	;# 
   660  009C                     	;# 
   661  009D                     	;# 
   662  009E                     	;# 
   663  009F                     	;# 
   664  010C                     	;# 
   665  010D                     	;# 
   666  0119                     	;# 
   667  011A                     	;# 
   668  011B                     	;# 
   669  011B                     	;# 
   670  011C                     	;# 
   671  011D                     	;# 
   672  011E                     	;# 
   673  011F                     	;# 
   674  018C                     	;# 
   675  018D                     	;# 
   676  018E                     	;# 
   677  018F                     	;# 
   678  0190                     	;# 
   679  0191                     	;# 
   680  0192                     	;# 
   681  020C                     	;# 
   682  020D                     	;# 
   683  020E                     	;# 
   684  020E                     	;# 
   685  020F                     	;# 
   686  020F                     	;# 
   687  0210                     	;# 
   688  0210                     	;# 
   689  0211                     	;# 
   690  0211                     	;# 
   691  028C                     	;# 
   692  028C                     	;# 
   693  028D                     	;# 
   694  028D                     	;# 
   695  028E                     	;# 
   696  028F                     	;# 
   697  0290                     	;# 
   698  0291                     	;# 
   699  030C                     	;# 
   700  030C                     	;# 
   701  030D                     	;# 
   702  030E                     	;# 
   703  030F                     	;# 
   704  0310                     	;# 
   705  0310                     	;# 
   706  0311                     	;# 
   707  0312                     	;# 
   708  0313                     	;# 
   709  0314                     	;# 
   710  0314                     	;# 
   711  0315                     	;# 
   712  0316                     	;# 
   713  0318                     	;# 
   714  0318                     	;# 
   715  0319                     	;# 
   716  031A                     	;# 
   717  059C                     	;# 
   718  059C                     	;# 
   719  059D                     	;# 
   720  059D                     	;# 
   721  059E                     	;# 
   722  059F                     	;# 
   723  070C                     	;# 
   724  070D                     	;# 
   725  070E                     	;# 
   726  0716                     	;# 
   727  0717                     	;# 
   728  0718                     	;# 
   729  080C                     	;# 
   730  0811                     	;# 
   731  0813                     	;# 
   732  0814                     	;# 
   733  081A                     	;# 
   734  081A                     	;# 
   735  081B                     	;# 
   736  081C                     	;# 
   737  081C                     	;# 
   738  081D                     	;# 
   739  081E                     	;# 
   740  081F                     	;# 
   741  088E                     	;# 
   742  0890                     	;# 
   743  0891                     	;# 
   744  0892                     	;# 
   745  0893                     	;# 
   746  090C                     	;# 
   747  1E8F                     	;# 
   748  1E90                     	;# 
   749  1E91                     	;# 
   750  1E92                     	;# 
   751  1E93                     	;# 
   752  1E9C                     	;# 
   753  1EA1                     	;# 
   754  1EA2                     	;# 
   755  1EC3                     	;# 
   756  1EC5                     	;# 
   757  1EC6                     	;# 
   758  1EC7                     	;# 
   759  1ECB                     	;# 
   760  1ECB                     	;# 
   761  1ECB                     	;# 
   762  1ECC                     	;# 
   763  1ECC                     	;# 
   764  1ECC                     	;# 
   765  1F10                     	;# 
   766  1F11                     	;# 
   767  1F12                     	;# 
   768  1F14                     	;# 
   769  1F15                     	;# 
   770  1F1C                     	;# 
   771  1F1D                     	;# 
   772  1F1E                     	;# 
   773  1F1F                     	;# 
   774  1F20                     	;# 
   775  1F21                     	;# 
   776  1F22                     	;# 
   777  1F23                     	;# 
   778  1F24                     	;# 
   779  1F25                     	;# 
   780  1F26                     	;# 
   781  1F27                     	;# 
   782  1F38                     	;# 
   783  1F39                     	;# 
   784  1F3A                     	;# 
   785  1F3B                     	;# 
   786  1F3C                     	;# 
   787  1F3D                     	;# 
   788  1F3E                     	;# 
   789  1F3F                     	;# 
   790  1F43                     	;# 
   791  1F44                     	;# 
   792  1F45                     	;# 
   793  1F46                     	;# 
   794  1F47                     	;# 
   795  1F48                     	;# 
   796  1F49                     	;# 
   797  1F4A                     	;# 
   798  1F4E                     	;# 
   799  1F4F                     	;# 
   800  1F50                     	;# 
   801  1F51                     	;# 
   802  1F52                     	;# 
   803  1F53                     	;# 
   804  1F54                     	;# 
   805  1F55                     	;# 
   806  1FE4                     	;# 
   807  1FE5                     	;# 
   808  1FE6                     	;# 
   809  1FE7                     	;# 
   810  1FE8                     	;# 
   811  1FE8                     	;# 
   812  1FE9                     	;# 
   813  1FEA                     	;# 
   814  1FEB                     	;# 
   815  1FED                     	;# 
   816  1FEE                     	;# 
   817  1FEF                     	;# 
   818  0000                     	;# 
   819  0001                     	;# 
   820  0002                     	;# 
   821  0003                     	;# 
   822  0004                     	;# 
   823  0005                     	;# 
   824  0006                     	;# 
   825  0007                     	;# 
   826  0008                     	;# 
   827  0009                     	;# 
   828  000A                     	;# 
   829  000B                     	;# 
   830  000C                     	;# 
   831  000D                     	;# 
   832  000E                     	;# 
   833  0012                     	;# 
   834  0013                     	;# 
   835  0014                     	;# 
   836  0018                     	;# 
   837  0019                     	;# 
   838  001A                     	;# 
   839  009A                     	;# 
   840  009B                     	;# 
   841  009B                     	;# 
   842  009C                     	;# 
   843  009D                     	;# 
   844  009E                     	;# 
   845  009F                     	;# 
   846  010C                     	;# 
   847  010D                     	;# 
   848  0119                     	;# 
   849  011A                     	;# 
   850  011B                     	;# 
   851  011B                     	;# 
   852  011C                     	;# 
   853  011D                     	;# 
   854  011E                     	;# 
   855  011F                     	;# 
   856  018C                     	;# 
   857  018D                     	;# 
   858  018E                     	;# 
   859  018F                     	;# 
   860  0190                     	;# 
   861  0191                     	;# 
   862  0192                     	;# 
   863  020C                     	;# 
   864  020D                     	;# 
   865  020E                     	;# 
   866  020E                     	;# 
   867  020F                     	;# 
   868  020F                     	;# 
   869  0210                     	;# 
   870  0210                     	;# 
   871  0211                     	;# 
   872  0211                     	;# 
   873  028C                     	;# 
   874  028C                     	;# 
   875  028D                     	;# 
   876  028D                     	;# 
   877  028E                     	;# 
   878  028F                     	;# 
   879  0290                     	;# 
   880  0291                     	;# 
   881  030C                     	;# 
   882  030C                     	;# 
   883  030D                     	;# 
   884  030E                     	;# 
   885  030F                     	;# 
   886  0310                     	;# 
   887  0310                     	;# 
   888  0311                     	;# 
   889  0312                     	;# 
   890  0313                     	;# 
   891  0314                     	;# 
   892  0314                     	;# 
   893  0315                     	;# 
   894  0316                     	;# 
   895  0318                     	;# 
   896  0318                     	;# 
   897  0319                     	;# 
   898  031A                     	;# 
   899  059C                     	;# 
   900  059C                     	;# 
   901  059D                     	;# 
   902  059D                     	;# 
   903  059E                     	;# 
   904  059F                     	;# 
   905  070C                     	;# 
   906  070D                     	;# 
   907  070E                     	;# 
   908  0716                     	;# 
   909  0717                     	;# 
   910  0718                     	;# 
   911  080C                     	;# 
   912  0811                     	;# 
   913  0813                     	;# 
   914  0814                     	;# 
   915  081A                     	;# 
   916  081A                     	;# 
   917  081B                     	;# 
   918  081C                     	;# 
   919  081C                     	;# 
   920  081D                     	;# 
   921  081E                     	;# 
   922  081F                     	;# 
   923  088E                     	;# 
   924  0890                     	;# 
   925  0891                     	;# 
   926  0892                     	;# 
   927  0893                     	;# 
   928  090C                     	;# 
   929  1E8F                     	;# 
   930  1E90                     	;# 
   931  1E91                     	;# 
   932  1E92                     	;# 
   933  1E93                     	;# 
   934  1E9C                     	;# 
   935  1EA1                     	;# 
   936  1EA2                     	;# 
   937  1EC3                     	;# 
   938  1EC5                     	;# 
   939  1EC6                     	;# 
   940  1EC7                     	;# 
   941  1ECB                     	;# 
   942  1ECB                     	;# 
   943  1ECB                     	;# 
   944  1ECC                     	;# 
   945  1ECC                     	;# 
   946  1ECC                     	;# 
   947  1F10                     	;# 
   948  1F11                     	;# 
   949  1F12                     	;# 
   950  1F14                     	;# 
   951  1F15                     	;# 
   952  1F1C                     	;# 
   953  1F1D                     	;# 
   954  1F1E                     	;# 
   955  1F1F                     	;# 
   956  1F20                     	;# 
   957  1F21                     	;# 
   958  1F22                     	;# 
   959  1F23                     	;# 
   960  1F24                     	;# 
   961  1F25                     	;# 
   962  1F26                     	;# 
   963  1F27                     	;# 
   964  1F38                     	;# 
   965  1F39                     	;# 
   966  1F3A                     	;# 
   967  1F3B                     	;# 
   968  1F3C                     	;# 
   969  1F3D                     	;# 
   970  1F3E                     	;# 
   971  1F3F                     	;# 
   972  1F43                     	;# 
   973  1F44                     	;# 
   974  1F45                     	;# 
   975  1F46                     	;# 
   976  1F47                     	;# 
   977  1F48                     	;# 
   978  1F49                     	;# 
   979  1F4A                     	;# 
   980  1F4E                     	;# 
   981  1F4F                     	;# 
   982  1F50                     	;# 
   983  1F51                     	;# 
   984  1F52                     	;# 
   985  1F53                     	;# 
   986  1F54                     	;# 
   987  1F55                     	;# 
   988  1FE4                     	;# 
   989  1FE5                     	;# 
   990  1FE6                     	;# 
   991  1FE7                     	;# 
   992  1FE8                     	;# 
   993  1FE8                     	;# 
   994  1FE9                     	;# 
   995  1FEA                     	;# 
   996  1FEB                     	;# 
   997  1FED                     	;# 
   998  1FEE                     	;# 
   999  1FEF                     	;# 
  1000  0000                     	;# 
  1001  0001                     	;# 
  1002  0002                     	;# 
  1003  0003                     	;# 
  1004  0004                     	;# 
  1005  0005                     	;# 
  1006  0006                     	;# 
  1007  0007                     	;# 
  1008  0008                     	;# 
  1009  0009                     	;# 
  1010  000A                     	;# 
  1011  000B                     	;# 
  1012  000C                     	;# 
  1013  000D                     	;# 
  1014  000E                     	;# 
  1015  0012                     	;# 
  1016  0013                     	;# 
  1017  0014                     	;# 
  1018  0018                     	;# 
  1019  0019                     	;# 
  1020  001A                     	;# 
  1021  009A                     	;# 
  1022  009B                     	;# 
  1023  009B                     	;# 
  1024  009C                     	;# 
  1025  009D                     	;# 
  1026  009E                     	;# 
  1027  009F                     	;# 
  1028  010C                     	;# 
  1029  010D                     	;# 
  1030  0119                     	;# 
  1031  011A                     	;# 
  1032  011B                     	;# 
  1033  011B                     	;# 
  1034  011C                     	;# 
  1035  011D                     	;# 
  1036  011E                     	;# 
  1037  011F                     	;# 
  1038  018C                     	;# 
  1039  018D                     	;# 
  1040  018E                     	;# 
  1041  018F                     	;# 
  1042  0190                     	;# 
  1043  0191                     	;# 
  1044  0192                     	;# 
  1045  020C                     	;# 
  1046  020D                     	;# 
  1047  020E                     	;# 
  1048  020E                     	;# 
  1049  020F                     	;# 
  1050  020F                     	;# 
  1051  0210                     	;# 
  1052  0210                     	;# 
  1053  0211                     	;# 
  1054  0211                     	;# 
  1055  028C                     	;# 
  1056  028C                     	;# 
  1057  028D                     	;# 
  1058  028D                     	;# 
  1059  028E                     	;# 
  1060  028F                     	;# 
  1061  0290                     	;# 
  1062  0291                     	;# 
  1063  030C                     	;# 
  1064  030C                     	;# 
  1065  030D                     	;# 
  1066  030E                     	;# 
  1067  030F                     	;# 
  1068  0310                     	;# 
  1069  0310                     	;# 
  1070  0311                     	;# 
  1071  0312                     	;# 
  1072  0313                     	;# 
  1073  0314                     	;# 
  1074  0314                     	;# 
  1075  0315                     	;# 
  1076  0316                     	;# 
  1077  0318                     	;# 
  1078  0318                     	;# 
  1079  0319                     	;# 
  1080  031A                     	;# 
  1081  059C                     	;# 
  1082  059C                     	;# 
  1083  059D                     	;# 
  1084  059D                     	;# 
  1085  059E                     	;# 
  1086  059F                     	;# 
  1087  070C                     	;# 
  1088  070D                     	;# 
  1089  070E                     	;# 
  1090  0716                     	;# 
  1091  0717                     	;# 
  1092  0718                     	;# 
  1093  080C                     	;# 
  1094  0811                     	;# 
  1095  0813                     	;# 
  1096  0814                     	;# 
  1097  081A                     	;# 
  1098  081A                     	;# 
  1099  081B                     	;# 
  1100  081C                     	;# 
  1101  081C                     	;# 
  1102  081D                     	;# 
  1103  081E                     	;# 
  1104  081F                     	;# 
  1105  088E                     	;# 
  1106  0890                     	;# 
  1107  0891                     	;# 
  1108  0892                     	;# 
  1109  0893                     	;# 
  1110  090C                     	;# 
  1111  1E8F                     	;# 
  1112  1E90                     	;# 
  1113  1E91                     	;# 
  1114  1E92                     	;# 
  1115  1E93                     	;# 
  1116  1E9C                     	;# 
  1117  1EA1                     	;# 
  1118  1EA2                     	;# 
  1119  1EC3                     	;# 
  1120  1EC5                     	;# 
  1121  1EC6                     	;# 
  1122  1EC7                     	;# 
  1123  1ECB                     	;# 
  1124  1ECB                     	;# 
  1125  1ECB                     	;# 
  1126  1ECC                     	;# 
  1127  1ECC                     	;# 
  1128  1ECC                     	;# 
  1129  1F10                     	;# 
  1130  1F11                     	;# 
  1131  1F12                     	;# 
  1132  1F14                     	;# 
  1133  1F15                     	;# 
  1134  1F1C                     	;# 
  1135  1F1D                     	;# 
  1136  1F1E                     	;# 
  1137  1F1F                     	;# 
  1138  1F20                     	;# 
  1139  1F21                     	;# 
  1140  1F22                     	;# 
  1141  1F23                     	;# 
  1142  1F24                     	;# 
  1143  1F25                     	;# 
  1144  1F26                     	;# 
  1145  1F27                     	;# 
  1146  1F38                     	;# 
  1147  1F39                     	;# 
  1148  1F3A                     	;# 
  1149  1F3B                     	;# 
  1150  1F3C                     	;# 
  1151  1F3D                     	;# 
  1152  1F3E                     	;# 
  1153  1F3F                     	;# 
  1154  1F43                     	;# 
  1155  1F44                     	;# 
  1156  1F45                     	;# 
  1157  1F46                     	;# 
  1158  1F47                     	;# 
  1159  1F48                     	;# 
  1160  1F49                     	;# 
  1161  1F4A                     	;# 
  1162  1F4E                     	;# 
  1163  1F4F                     	;# 
  1164  1F50                     	;# 
  1165  1F51                     	;# 
  1166  1F52                     	;# 
  1167  1F53                     	;# 
  1168  1F54                     	;# 
  1169  1F55                     	;# 
  1170  1FE4                     	;# 
  1171  1FE5                     	;# 
  1172  1FE6                     	;# 
  1173  1FE7                     	;# 
  1174  1FE8                     	;# 
  1175  1FE8                     	;# 
  1176  1FE9                     	;# 
  1177  1FEA                     	;# 
  1178  1FEB                     	;# 
  1179  1FED                     	;# 
  1180  1FEE                     	;# 
  1181  1FEF                     	;# 
  1182                           
  1183                           	psect	idataBANK0
  1184  037C                     __pidataBANK0:
  1185                           
  1186                           ;initializer for debouncePushButton@count
  1187  037C  34FF               	retlw	255
  1188  037D  3400               	retlw	0
  1189                           
  1190                           	psect	stringtext1
  1191  0366                     __pstringtext1:
  1192  0366                     _spi1_configuration:
  1193  0366  3422               	retlw	34
  1194  0367  3400               	retlw	0
  1195  0368  3400               	retlw	0
  1196  0369  3400               	retlw	0
  1197  036A                     __end_of_spi1_configuration:
  1198                           
  1199                           	psect	nvBANK0
  1200  0054                     __pnvBANK0:
  1201  0054                     _EUSART1_ErrorHandler:
  1202  0054                     	ds	2
  1203  0056                     _EUSART1_OverrunErrorHandler:
  1204  0056                     	ds	2
  1205  0058                     _EUSART1_FramingErrorHandler:
  1206  0058                     	ds	2
  1207  005A                     _IOCCF2_InterruptHandler:
  1208  005A                     	ds	2
  1209  005C                     _EUSART1_RxDefaultInterruptHandler:
  1210  005C                     	ds	2
  1211  0014                     _TRISCbits	set	20
  1212  0018                     _LATAbits	set	24
  1213  0014                     _TRISC	set	20
  1214  0013                     _TRISB	set	19
  1215  0012                     _TRISA	set	18
  1216  001A                     _LATC	set	26
  1217  0019                     _LATB	set	25
  1218  0018                     _LATA	set	24
  1219  000B                     _INTCONbits	set	11
  1220  0119                     _RC1REG	set	281
  1221  011D                     _RC1STAbits	set	285
  1222  011A                     _TX1REG	set	282
  1223  011E                     _TX1STAbits	set	286
  1224  011C                     _SP1BRGH	set	284
  1225  011B                     _SP1BRGL	set	283
  1226  011E                     _TX1STA	set	286
  1227  011D                     _RC1STA	set	285
  1228  011F                     _BAUD1CON	set	287
  1229  018C                     _SSP1BUF	set	396
  1230  0191                     _SSP1CON2	set	401
  1231  0190                     _SSP1CON1bits	set	400
  1232  018D                     _SSP1ADD	set	397
  1233  0190                     _SSP1CON1	set	400
  1234  018F                     _SSP1STAT	set	399
  1235  070D                     _PIR1bits	set	1805
  1236  0717                     _PIE1bits	set	1815
  1237  070C                     _PIR0bits	set	1804
  1238  0716                     _PIE0bits	set	1814
  1239  080C                     _WDTCON	set	2060
  1240  0892                     _OSCTUNE	set	2194
  1241  0893                     _OSCFRQ	set	2195
  1242  0891                     _OSCEN	set	2193
  1243  1EC6                     _SSP1DATPPS	set	7878
  1244  1EC5                     _SSP1CLKPPS	set	7877
  1245  1ECB                     _RX1PPS	set	7883
  1246  1F26                     _RC6PPS	set	7974
  1247  1F24                     _RC4PPS	set	7972
  1248  1F20                     _RC0PPS	set	7968
  1249  1F53                     _IOCCPbits	set	8019
  1250  1F54                     _IOCCNbits	set	8020
  1251  1F55                     _IOCCFbits	set	8021
  1252  1F52                     _INLVLC	set	8018
  1253  1F47                     _INLVLB	set	8007
  1254  1F3C                     _INLVLA	set	7996
  1255  1F51                     _SLRCONC	set	8017
  1256  1F46                     _SLRCONB	set	8006
  1257  1F3B                     _SLRCONA	set	7995
  1258  1F50                     _ODCONC	set	8016
  1259  1F45                     _ODCONB	set	8005
  1260  1F3A                     _ODCONA	set	7994
  1261  1F4F                     _WPUC	set	8015
  1262  1F39                     _WPUA	set	7993
  1263  1F44                     _WPUB	set	8004
  1264  1F38                     _ANSELA	set	7992
  1265  1F43                     _ANSELB	set	8003
  1266  1F4E                     _ANSELC	set	8014
  1267                           
  1268                           	psect	stringtext2
  1269  0318                     __pstringtext2:
  1270  0318                     STR_1:
  1271  0318  3474               	retlw	116	;'t'
  1272  0319  346F               	retlw	111	;'o'
  1273  031A  3467               	retlw	103	;'g'
  1274  031B  3467               	retlw	103	;'g'
  1275  031C  346C               	retlw	108	;'l'
  1276  031D  3469               	retlw	105	;'i'
  1277  031E  346E               	retlw	110	;'n'
  1278  031F  3467               	retlw	103	;'g'
  1279  0320  3400               	retlw	0
  1280                           
  1281                           	psect	stringtext3
  1282  0000                     __pstringtext3:
  1283  0318                     
  1284                           	psect	cinit
  1285  0029                     start_initialization:	
  1286                           ; #config settings
  1287                           
  1288  0029                     __initialization:
  1289                           
  1290                           ; Initialize objects allocated to BANK0
  1291  0029  3183  237C  3180   	fcall	__pidataBANK0	;fetch initializer
  1292  002C  00DE               	movwf	__pdataBANK0& (0+127)
  1293  002D  3183  237D  3180   	fcall	__pidataBANK0+1	;fetch initializer
  1294  0030  00DF               	movwf	(__pdataBANK0+1)& (0+127)
  1295                           
  1296                           ; Clear objects allocated to COMMON
  1297  0031  01FC               	clrf	__pbssCOMMON& (0+127)
  1298                           
  1299                           ; Clear objects allocated to BANK0
  1300  0032  3020               	movlw	low __pbssBANK0
  1301  0033  0084               	movwf	4
  1302  0034  3000               	movlw	high __pbssBANK0
  1303  0035  0085               	movwf	5
  1304  0036  3021               	movlw	33
  1305  0037  3183  2332  3180   	fcall	clear_ram0
  1306                           
  1307                           ; Clear objects allocated to BANK1
  1308  003A  30A0               	movlw	low __pbssBANK1
  1309  003B  0084               	movwf	4
  1310  003C  3000               	movlw	high __pbssBANK1
  1311  003D  0085               	movwf	5
  1312  003E  3020               	movlw	32
  1313  003F  3183  2332  3180   	fcall	clear_ram0
  1314  0042                     end_of_initialization:	
  1315                           ;End of C runtime variable initialization code
  1316                           
  1317  0042                     __end_of__initialization:
  1318  0042  107E               	bcf	int$flags,0	;clear compiler interrupt flag (level 1)
  1319  0043  0140               	movlb	0
  1320  0044  3181  29D2         	ljmp	_main	;jump to C main() function
  1321                           
  1322                           	psect	bssCOMMON
  1323  007C                     __pbssCOMMON:
  1324  007C                     _eusart1RxHead:
  1325  007C                     	ds	1
  1326                           
  1327                           	psect	bssBANK0
  1328  0020                     __pbssBANK0:
  1329  0020                     _eusart1RxStatusBuffer:
  1330  0020                     	ds	8
  1331  0028                     _eusart1RxBuffer:
  1332  0028                     	ds	8
  1333  0030                     _nout:
  1334  0030                     	ds	2
  1335  0032                     _width:
  1336  0032                     	ds	2
  1337  0034                     _prec:
  1338  0034                     	ds	2
  1339  0036                     _flags:
  1340  0036                     	ds	2
  1341  0038                     _eusart1RxLastError:
  1342  0038                     	ds	1
  1343  0039                     _eusart1RxCount:
  1344  0039                     	ds	1
  1345  003A                     _eusart1RxTail:
  1346  003A                     	ds	1
  1347  003B                     _requestType:
  1348  003B                     	ds	1
  1349  003C                     _spiReadValue:
  1350  003C                     	ds	1
  1351  003D                     _serialReadValue:
  1352  003D                     	ds	1
  1353  003E                     _FLAGS:
  1354  003E                     	ds	1
  1355  003F                     _serialRead:
  1356  003F                     	ds	1
  1357  0040                     _SPIRead:
  1358  0040                     	ds	1
  1359                           
  1360                           	psect	dataBANK0
  1361  005E                     __pdataBANK0:
  1362  005E                     debouncePushButton@count:
  1363  005E                     	ds	2
  1364                           
  1365                           	psect	bssBANK1
  1366  00A0                     __pbssBANK1:
  1367  00A0                     _dbuf:
  1368  00A0                     	ds	32
  1369                           
  1370                           	psect	clrtext
  1371  0332                     clear_ram0:	
  1372                           ;	Called with FSR0 containing the base address, and
  1373                           ;	WREG with the size to clear
  1374                           
  1375  0332  0064               	clrwdt	;clear the watchdog before getting into this loop
  1376  0333                     clrloop0:
  1377  0333  0180               	clrf	0	;clear RAM location pointed to by FSR
  1378  0334  3101               	addfsr 0,1
  1379  0335  0B89               	decfsz	9,f	;Have we reached the end of clearing yet?
  1380  0336  2B33               	goto	clrloop0	;have we reached the end yet?
  1381  0337  3400               	retlw	0	;all done for this memory range, return
  1382                           
  1383                           	psect	cstackCOMMON
  1384  0070                     __pcstackCOMMON:
  1385  0070                     ?_PIN_MANAGER_IOC:
  1386  0070                     ??_PIN_MANAGER_IOC:	
  1387                           ; 1 bytes @ 0x0
  1388                           
  1389  0070                     ?_SPI1_Initialize:	
  1390                           ; 1 bytes @ 0x0
  1391                           
  1392  0070                     ?_PIN_MANAGER_Initialize:	
  1393                           ; 1 bytes @ 0x0
  1394                           
  1395  0070                     ?_OSCILLATOR_Initialize:	
  1396                           ; 1 bytes @ 0x0
  1397                           
  1398  0070                     ?_WDT_Initialize:	
  1399                           ; 1 bytes @ 0x0
  1400                           
  1401  0070                     ?_EUSART1_Initialize:	
  1402                           ; 1 bytes @ 0x0
  1403                           
  1404  0070                     ?_IOCCF2_DefaultInterruptHandler:	
  1405                           ; 1 bytes @ 0x0
  1406                           
  1407  0070                     ??_IOCCF2_DefaultInterruptHandler:	
  1408                           ; 1 bytes @ 0x0
  1409                           
  1410  0070                     ?_IOCCF2_ISR:	
  1411                           ; 1 bytes @ 0x0
  1412                           
  1413  0070                     ??_IOCCF2_ISR:	
  1414                           ; 1 bytes @ 0x0
  1415                           
  1416  0070                     ?_SPI1_WriteByte:	
  1417                           ; 1 bytes @ 0x0
  1418                           
  1419  0070                     ?_EUSART1_Receive_ISR:	
  1420                           ; 1 bytes @ 0x0
  1421                           
  1422  0070                     ?_EUSART1_DefaultFramingErrorHandler:	
  1423                           ; 1 bytes @ 0x0
  1424                           
  1425  0070                     ??_EUSART1_DefaultFramingErrorHandler:	
  1426                           ; 1 bytes @ 0x0
  1427                           
  1428  0070                     ?_EUSART1_DefaultOverrunErrorHandler:	
  1429                           ; 1 bytes @ 0x0
  1430                           
  1431  0070                     ??_EUSART1_DefaultOverrunErrorHandler:	
  1432                           ; 1 bytes @ 0x0
  1433                           
  1434  0070                     ?_EUSART1_DefaultErrorHandler:	
  1435                           ; 1 bytes @ 0x0
  1436                           
  1437  0070                     ?_EUSART1_RxDataHandler:	
  1438                           ; 1 bytes @ 0x0
  1439                           
  1440  0070                     ?_EUSART1_RxCustomHandler:	
  1441                           ; 1 bytes @ 0x0
  1442                           
  1443  0070                     ??_EUSART1_RxCustomHandler:	
  1444                           ; 1 bytes @ 0x0
  1445                           
  1446  0070                     ?_INTERRUPT_InterruptManager:	
  1447                           ; 1 bytes @ 0x0
  1448                           
  1449  0070                     ?_SYSTEM_Initialize:	
  1450                           ; 1 bytes @ 0x0
  1451                           
  1452  0070                     ?_pushButtonCallback:	
  1453                           ; 1 bytes @ 0x0
  1454                           
  1455  0070                     ?_debouncePushButton:	
  1456                           ; 1 bytes @ 0x0
  1457                           
  1458  0070                     ?_EUSART1_Write:	
  1459                           ; 1 bytes @ 0x0
  1460                           
  1461  0070                     ?_putch:	
  1462                           ; 1 bytes @ 0x0
  1463                           
  1464  0070                     ?_receiveSerialCallback:	
  1465                           ; 1 bytes @ 0x0
  1466                           
  1467  0070                     ?_SPI1_Open:	
  1468                           ; 1 bytes @ 0x0
  1469                           
  1470  0070                     ?_receiveSPICallback:	
  1471                           ; 1 bytes @ 0x0
  1472                           
  1473  0070                     ?_main:	
  1474                           ; 1 bytes @ 0x0
  1475                           
  1476                           
  1477                           ; 1 bytes @ 0x0
  1478  0070                     	ds	1
  1479  0071                     ??_SPI1_Initialize:
  1480  0071                     ??_OSCILLATOR_Initialize:	
  1481                           ; 1 bytes @ 0x1
  1482                           
  1483  0071                     ??_WDT_Initialize:	
  1484                           ; 1 bytes @ 0x1
  1485                           
  1486  0071                     ?_IOCCF2_SetInterruptHandler:	
  1487                           ; 1 bytes @ 0x1
  1488                           
  1489  0071                     ??_SPI1_WriteByte:	
  1490                           ; 1 bytes @ 0x1
  1491                           
  1492  0071                     ?_EUSART1_SetRxInterruptHandler:	
  1493                           ; 1 bytes @ 0x1
  1494                           
  1495  0071                     ??_EUSART1_Receive_ISR:	
  1496                           ; 1 bytes @ 0x1
  1497                           
  1498  0071                     ?_EUSART1_SetFramingErrorHandler:	
  1499                           ; 1 bytes @ 0x1
  1500                           
  1501  0071                     ?_EUSART1_SetOverrunErrorHandler:	
  1502                           ; 1 bytes @ 0x1
  1503                           
  1504  0071                     ?_EUSART1_SetErrorHandler:	
  1505                           ; 1 bytes @ 0x1
  1506                           
  1507  0071                     ??_EUSART1_DefaultErrorHandler:	
  1508                           ; 1 bytes @ 0x1
  1509                           
  1510  0071                     ??_EUSART1_RxDataHandler:	
  1511                           ; 1 bytes @ 0x1
  1512                           
  1513  0071                     ??_INTERRUPT_InterruptManager:	
  1514                           ; 1 bytes @ 0x1
  1515                           
  1516  0071                     ??_debouncePushButton:	
  1517                           ; 1 bytes @ 0x1
  1518                           
  1519  0071                     ??_EUSART1_Write:	
  1520                           ; 1 bytes @ 0x1
  1521                           
  1522  0071                     ??_SPI1_Open:	
  1523                           ; 1 bytes @ 0x1
  1524                           
  1525  0071                     EUSART1_Write@txData:	
  1526                           ; 1 bytes @ 0x1
  1527                           
  1528  0071                     SPI1_WriteByte@byte:	
  1529                           ; 1 bytes @ 0x1
  1530                           
  1531  0071                     IOCCF2_SetInterruptHandler@InterruptHandler:	
  1532                           ; 1 bytes @ 0x1
  1533                           
  1534  0071                     EUSART1_SetFramingErrorHandler@interruptHandler:	
  1535                           ; 2 bytes @ 0x1
  1536                           
  1537  0071                     EUSART1_SetOverrunErrorHandler@interruptHandler:	
  1538                           ; 2 bytes @ 0x1
  1539                           
  1540  0071                     EUSART1_SetErrorHandler@interruptHandler:	
  1541                           ; 2 bytes @ 0x1
  1542                           
  1543  0071                     EUSART1_SetRxInterruptHandler@interruptHandler:	
  1544                           ; 2 bytes @ 0x1
  1545                           
  1546                           
  1547                           ; 2 bytes @ 0x1
  1548  0071                     	ds	1
  1549  0072                     ??_putch:
  1550  0072                     putch@txData:	
  1551                           ; 1 bytes @ 0x2
  1552                           
  1553                           
  1554                           ; 1 bytes @ 0x2
  1555  0072                     	ds	1
  1556  0073                     ??_PIN_MANAGER_Initialize:
  1557  0073                     ??_EUSART1_Initialize:	
  1558                           ; 1 bytes @ 0x3
  1559                           
  1560  0073                     ??_IOCCF2_SetInterruptHandler:	
  1561                           ; 1 bytes @ 0x3
  1562                           
  1563  0073                     ??_EUSART1_SetRxInterruptHandler:	
  1564                           ; 1 bytes @ 0x3
  1565                           
  1566  0073                     ??_EUSART1_SetFramingErrorHandler:	
  1567                           ; 1 bytes @ 0x3
  1568                           
  1569  0073                     ??_EUSART1_SetOverrunErrorHandler:	
  1570                           ; 1 bytes @ 0x3
  1571                           
  1572  0073                     ??_EUSART1_SetErrorHandler:	
  1573                           ; 1 bytes @ 0x3
  1574                           
  1575  0073                     ??_SYSTEM_Initialize:	
  1576                           ; 1 bytes @ 0x3
  1577                           
  1578  0073                     ?_fputc:	
  1579                           ; 1 bytes @ 0x3
  1580                           
  1581  0073                     fputc@c:	
  1582                           ; 2 bytes @ 0x3
  1583                           
  1584                           
  1585                           ; 2 bytes @ 0x3
  1586  0073                     	ds	1
  1587  0074                     SPI1_Open@spi1UniqueConfiguration:
  1588                           
  1589                           ; 1 bytes @ 0x4
  1590  0074                     	ds	1
  1591  0075                     fputc@fp:
  1592                           
  1593                           ; 1 bytes @ 0x5
  1594  0075                     	ds	1
  1595  0076                     ??_fputc:
  1596                           
  1597                           ; 1 bytes @ 0x6
  1598  0076                     	ds	5
  1599  007B                     ??_putchar:
  1600  007B                     vfpfcnvrt@fp:	
  1601                           ; 1 bytes @ 0xB
  1602                           
  1603                           
  1604                           ; 1 bytes @ 0xB
  1605  007B                     	ds	1
  1606  007C                     ??_pushButtonCallback:
  1607  007C                     ??_receiveSPICallback:	
  1608                           ; 1 bytes @ 0xC
  1609                           
  1610  007C                     ??_main:	
  1611                           ; 1 bytes @ 0xC
  1612                           
  1613                           
  1614                           	psect	cstackBANK0
  1615  0041                     __pcstackBANK0:	
  1616                           ; 1 bytes @ 0xC
  1617                           
  1618  0041                     ?_putchar:
  1619  0041                     ?_vfpfcnvrt:	
  1620                           ; 2 bytes @ 0x0
  1621                           
  1622  0041                     vfpfcnvrt@fmt:	
  1623                           ; 2 bytes @ 0x0
  1624                           
  1625  0041                     putchar@c:	
  1626                           ; 1 bytes @ 0x0
  1627                           
  1628                           
  1629                           ; 2 bytes @ 0x0
  1630  0041                     	ds	1
  1631  0042                     vfpfcnvrt@ap:
  1632                           
  1633                           ; 1 bytes @ 0x1
  1634  0042                     	ds	1
  1635  0043                     ??_receiveSerialCallback:
  1636  0043                     ??_vfpfcnvrt:	
  1637                           ; 1 bytes @ 0x2
  1638                           
  1639                           
  1640                           ; 1 bytes @ 0x2
  1641  0043                     	ds	5
  1642  0048                     ?_vfprintf:
  1643  0048                     vfprintf@fmt:	
  1644                           ; 2 bytes @ 0x7
  1645                           
  1646                           
  1647                           ; 2 bytes @ 0x7
  1648  0048                     	ds	2
  1649  004A                     vfprintf@ap:
  1650                           
  1651                           ; 1 bytes @ 0x9
  1652  004A                     	ds	1
  1653  004B                     ??_vfprintf:
  1654                           
  1655                           ; 1 bytes @ 0xA
  1656  004B                     	ds	2
  1657  004D                     vfprintf@fp:
  1658                           
  1659                           ; 1 bytes @ 0xC
  1660  004D                     	ds	1
  1661  004E                     vfprintf@cfmt:
  1662                           
  1663                           ; 2 bytes @ 0xD
  1664  004E                     	ds	2
  1665  0050                     ?_printf:
  1666  0050                     printf@fmt:	
  1667                           ; 2 bytes @ 0xF
  1668                           
  1669                           
  1670                           ; 2 bytes @ 0xF
  1671  0050                     	ds	2
  1672  0052                     ??_printf:
  1673                           
  1674                           ; 1 bytes @ 0x11
  1675  0052                     	ds	1
  1676  0053                     printf@ap:
  1677                           
  1678                           ; 1 bytes @ 0x12
  1679  0053                     	ds	1
  1680                           
  1681                           	psect	maintext
  1682  01D2                     __pmaintext:	
  1683 ;;
  1684 ;;Main: autosize = 0, tempsize = 0, incstack = 0, save=0
  1685 ;;
  1686 ;; *************** function _main *****************
  1687 ;; Defined at:
  1688 ;;		line 54 in file "main.c"
  1689 ;; Parameters:    Size  Location     Type
  1690 ;;		None
  1691 ;; Auto vars:     Size  Location     Type
  1692 ;;		None
  1693 ;; Return value:  Size  Location     Type
  1694 ;;                  1    wreg      void 
  1695 ;; Registers used:
  1696 ;;		wreg, fsr0l, fsr0h, fsr1l, fsr1h, status,2, status,0, pclath, cstack
  1697 ;; Tracked objects:
  1698 ;;		On entry : B3F/0
  1699 ;;		On exit  : 0/0
  1700 ;;		Unchanged: 0/0
  1701 ;; Data sizes:     COMMON   BANK0   BANK1   BANK2   BANK3   BANK4   BANK5   BANK6
  1702 ;;      Params:         0       0       0       0       0       0       0       0
  1703 ;;      Locals:         0       0       0       0       0       0       0       0
  1704 ;;      Temps:          0       0       0       0       0       0       0       0
  1705 ;;      Totals:         0       0       0       0       0       0       0       0
  1706 ;;Total ram usage:        0 bytes
  1707 ;; Hardware stack levels required when called: 12
  1708 ;; This function calls:
  1709 ;;		_SPI1_Open
  1710 ;;		_SYSTEM_Initialize
  1711 ;;		_debouncePushButton
  1712 ;;		_pushButtonCallback
  1713 ;;		_receiveSPICallback
  1714 ;;		_receiveSerialCallback
  1715 ;; This function is called by:
  1716 ;;		Startup code after reset
  1717 ;; This function uses a non-reentrant model
  1718 ;;
  1719                           
  1720                           
  1721                           ;psect for function _main
  1722  01D2                     _main:
  1723  01D2                     l1927:	
  1724                           ;incstack = 0
  1725                           ; Regs used in _main: [wreg-fsr1h+status,2+status,0+pclath+cstack]
  1726                           
  1727                           
  1728                           ;main.c: 56:     SYSTEM_Initialize();
  1729  01D2  3182  22E5  3181   	fcall	_SYSTEM_Initialize
  1730  01D5                     l1929:
  1731                           
  1732                           ;main.c: 62:     (INTCONbits.GIE = 1);
  1733  01D5  178B               	bsf	11,7	;volatile
  1734  01D6                     l1931:
  1735                           
  1736                           ;main.c: 65:     (INTCONbits.PEIE = 1);
  1737  01D6  170B               	bsf	11,6	;volatile
  1738  01D7                     l1933:
  1739                           
  1740                           ;main.c: 73:     SPI1_Open(SPI1_DEFAULT);
  1741  01D7  3000               	movlw	0
  1742  01D8  3180  20C2  3181   	fcall	_SPI1_Open
  1743  01DB                     l1935:
  1744                           
  1745                           ;main.c: 76:         if (FLAGS.bits.BUTTON_PUSHED) {
  1746  01DB  0140               	movlb	0	; select bank0
  1747  01DC  1D3E               	btfss	_FLAGS,2
  1748  01DD  29DF               	goto	u931
  1749  01DE  29E0               	goto	u930
  1750  01DF                     u931:
  1751  01DF  29EE               	goto	l1947
  1752  01E0                     u930:
  1753  01E0                     l1937:
  1754                           
  1755                           ;main.c: 77:             debouncePushButton();
  1756  01E0  3182  22AA  3181   	fcall	_debouncePushButton
  1757  01E3                     l1939:
  1758                           
  1759                           ;main.c: 78:             if (FLAGS.bits.BUTTON_DEBOUNCED) {
  1760  01E3  0140               	movlb	0	; select bank0
  1761  01E4  1DBE               	btfss	_FLAGS,3
  1762  01E5  29E7               	goto	u941
  1763  01E6  29E8               	goto	u940
  1764  01E7                     u941:
  1765  01E7  29EE               	goto	l1947
  1766  01E8                     u940:
  1767  01E8                     l1941:
  1768                           
  1769                           ;main.c: 79:                 pushButtonCallback();
  1770  01E8  3182  225B  3181   	fcall	_pushButtonCallback
  1771  01EB                     l1943:
  1772                           
  1773                           ;main.c: 80:                 FLAGS.bits.BUTTON_PUSHED = 0;
  1774  01EB  0140               	movlb	0	; select bank0
  1775  01EC  113E               	bcf	_FLAGS,2
  1776  01ED                     l1945:
  1777                           
  1778                           ;main.c: 81:                 FLAGS.bits.BUTTON_PUSHED = 0;
  1779  01ED  113E               	bcf	_FLAGS,2
  1780  01EE                     l1947:
  1781                           
  1782                           ;main.c: 84:         if (FLAGS.bits.UART_RECEIVED) {
  1783  01EE  1E3E               	btfss	_FLAGS,4
  1784  01EF  29F1               	goto	u951
  1785  01F0  29F2               	goto	u950
  1786  01F1                     u951:
  1787  01F1  29F7               	goto	l1953
  1788  01F2                     u950:
  1789  01F2                     l1949:
  1790                           
  1791                           ;main.c: 85:             receiveSerialCallback();
  1792  01F2  3182  2279  3181   	fcall	_receiveSerialCallback
  1793  01F5                     l1951:
  1794                           
  1795                           ;main.c: 86:             FLAGS.bits.UART_RECEIVED = 0;
  1796  01F5  0140               	movlb	0	; select bank0
  1797  01F6  123E               	bcf	_FLAGS,4
  1798  01F7                     l1953:
  1799                           
  1800                           ;main.c: 88:         if (FLAGS.bits.SPI_READ) {
  1801  01F7  1C3E               	btfss	_FLAGS,0
  1802  01F8  29FA               	goto	u961
  1803  01F9  29FB               	goto	u960
  1804  01FA                     u961:
  1805  01FA  29DB               	goto	l1935
  1806  01FB                     u960:
  1807  01FB                     l1955:
  1808                           
  1809                           ;main.c: 89:             receiveSPICallback();
  1810  01FB  3182  2295  3181   	fcall	_receiveSPICallback
  1811  01FE                     l1957:
  1812                           
  1813                           ;main.c: 90:             FLAGS.bits.SPI_READ = 0;
  1814  01FE  0140               	movlb	0	; select bank0
  1815  01FF  103E               	bcf	_FLAGS,0
  1816  0200  29DB               	goto	l1935
  1817  0201  3180  2827         	ljmp	start
  1818  0203                     __end_of_main:
  1819                           
  1820                           	psect	text1
  1821  0279                     __ptext1:	
  1822 ;; *************** function _receiveSerialCallback *****************
  1823 ;; Defined at:
  1824 ;;		line 246 in file "mcc_generated_files/eusart1.c"
  1825 ;; Parameters:    Size  Location     Type
  1826 ;;		None
  1827 ;; Auto vars:     Size  Location     Type
  1828 ;;		None
  1829 ;; Return value:  Size  Location     Type
  1830 ;;                  1    wreg      void 
  1831 ;; Registers used:
  1832 ;;		wreg, fsr1l, fsr1h, status,2, status,0, pclath, cstack
  1833 ;; Tracked objects:
  1834 ;;		On entry : 0/0
  1835 ;;		On exit  : 0/0
  1836 ;;		Unchanged: 0/0
  1837 ;; Data sizes:     COMMON   BANK0   BANK1   BANK2   BANK3   BANK4   BANK5   BANK6
  1838 ;;      Params:         0       0       0       0       0       0       0       0
  1839 ;;      Locals:         0       0       0       0       0       0       0       0
  1840 ;;      Temps:          0       2       0       0       0       0       0       0
  1841 ;;      Totals:         0       2       0       0       0       0       0       0
  1842 ;;Total ram usage:        2 bytes
  1843 ;; Hardware stack levels used: 1
  1844 ;; Hardware stack levels required when called: 9
  1845 ;; This function calls:
  1846 ;;		_SPI1_WriteByte
  1847 ;;		_putchar
  1848 ;; This function is called by:
  1849 ;;		_main
  1850 ;; This function uses a non-reentrant model
  1851 ;;
  1852                           
  1853                           
  1854                           ;psect for function _receiveSerialCallback
  1855  0279                     _receiveSerialCallback:
  1856  0279                     l340:	
  1857                           ;incstack = 0
  1858                           ; Regs used in _receiveSerialCallback: [wreg+fsr1l+fsr1h+status,2+status,0+pclath+cstack
      +                          ]
  1859                           ;mcc_generated_files/eusart1.c: 247:     do { LATAbits.LATA2 = ~LATAbits.LATA2; } while(
      +                          0);
  1860                           
  1861  0279                     l1917:
  1862  0279  1003               	clrc
  1863  027A  0140               	movlb	0	; select bank0
  1864  027B  1D18               	btfss	24,2	;volatile
  1865  027C  1403               	setc
  1866  027D  1803               	btfsc	3,0
  1867  027E  2A80               	goto	u891
  1868  027F  2A83               	goto	u890
  1869  0280                     u891:
  1870  0280  0140               	movlb	0	; select bank0
  1871  0281  1518               	bsf	24,2	;volatile
  1872  0282  2A85               	goto	u904
  1873  0283                     u890:
  1874  0283  0140               	movlb	0	; select bank0
  1875  0284  1118               	bcf	24,2	;volatile
  1876  0285                     u904:
  1877  0285                     l1919:
  1878                           
  1879                           ;mcc_generated_files/eusart1.c: 248:     putchar(serialRead);
  1880  0285  083F               	movf	_serialRead,w
  1881  0286  00C3               	movwf	??_receiveSerialCallback
  1882  0287  01C4               	clrf	??_receiveSerialCallback+1
  1883  0288  0843               	movf	??_receiveSerialCallback,w
  1884  0289  00C1               	movwf	putchar@c
  1885  028A  0844               	movf	??_receiveSerialCallback+1,w
  1886  028B  00C2               	movwf	putchar@c+1
  1887  028C  3183  2304  3182   	fcall	_putchar
  1888  028F                     l1921:
  1889                           
  1890                           ;mcc_generated_files/eusart1.c: 249:     SPI1_WriteByte(serialRead);
  1891  028F  0140               	movlb	0	; select bank0
  1892  0290  083F               	movf	_serialRead,w
  1893  0291  3183  235C  3182   	fcall	_SPI1_WriteByte
  1894  0294                     l342:
  1895  0294  0008               	return
  1896  0295                     __end_of_receiveSerialCallback:
  1897                           
  1898                           	psect	text2
  1899  0304                     __ptext2:	
  1900 ;; *************** function _putchar *****************
  1901 ;; Defined at:
  1902 ;;		line 4 in file "/Applications/microchip/xc8/v2.32/pic/sources/c99/common/putchar.c"
  1903 ;; Parameters:    Size  Location     Type
  1904 ;;  c               2    0[BANK0 ] int 
  1905 ;; Auto vars:     Size  Location     Type
  1906 ;;		None
  1907 ;; Return value:  Size  Location     Type
  1908 ;;                  2    0[BANK0 ] int 
  1909 ;; Registers used:
  1910 ;;		wreg, fsr1l, fsr1h, status,2, status,0, pclath, cstack
  1911 ;; Tracked objects:
  1912 ;;		On entry : 0/0
  1913 ;;		On exit  : 0/0
  1914 ;;		Unchanged: 0/0
  1915 ;; Data sizes:     COMMON   BANK0   BANK1   BANK2   BANK3   BANK4   BANK5   BANK6
  1916 ;;      Params:         0       2       0       0       0       0       0       0
  1917 ;;      Locals:         0       0       0       0       0       0       0       0
  1918 ;;      Temps:          0       0       0       0       0       0       0       0
  1919 ;;      Totals:         0       2       0       0       0       0       0       0
  1920 ;;Total ram usage:        2 bytes
  1921 ;; Hardware stack levels used: 1
  1922 ;; Hardware stack levels required when called: 8
  1923 ;; This function calls:
  1924 ;;		_fputc
  1925 ;; This function is called by:
  1926 ;;		_receiveSerialCallback
  1927 ;; This function uses a non-reentrant model
  1928 ;;
  1929                           
  1930                           
  1931                           ;psect for function _putchar
  1932  0304                     _putchar:
  1933  0304                     l1905:	
  1934                           ;incstack = 0
  1935                           ; Regs used in _putchar: [wreg+fsr1l+fsr1h+status,2+status,0+pclath+cstack]
  1936                           
  1937                           
  1938                           ;	Return value of _putchar is never used
  1939  0304  0140               	movlb	0	; select bank0
  1940  0305  0842               	movf	putchar@c+1,w
  1941  0306  00F4               	movwf	fputc@c+1
  1942  0307  0841               	movf	putchar@c,w
  1943  0308  00F3               	movwf	fputc@c
  1944  0309  01F5               	clrf	fputc@fp
  1945  030A  3181  2111  3183   	fcall	_fputc
  1946  030D                     l1063:
  1947  030D  0008               	return
  1948  030E                     __end_of_putchar:
  1949                           
  1950                           	psect	text3
  1951  0295                     __ptext3:	
  1952 ;; *************** function _receiveSPICallback *****************
  1953 ;; Defined at:
  1954 ;;		line 149 in file "mcc_generated_files/spi1.c"
  1955 ;; Parameters:    Size  Location     Type
  1956 ;;		None
  1957 ;; Auto vars:     Size  Location     Type
  1958 ;;		None
  1959 ;; Return value:  Size  Location     Type
  1960 ;;                  1    wreg      void 
  1961 ;; Registers used:
  1962 ;;		wreg, fsr0l, fsr0h, fsr1l, fsr1h, status,2, status,0, pclath, cstack
  1963 ;; Tracked objects:
  1964 ;;		On entry : 0/0
  1965 ;;		On exit  : 0/0
  1966 ;;		Unchanged: 0/0
  1967 ;; Data sizes:     COMMON   BANK0   BANK1   BANK2   BANK3   BANK4   BANK5   BANK6
  1968 ;;      Params:         0       0       0       0       0       0       0       0
  1969 ;;      Locals:         0       0       0       0       0       0       0       0
  1970 ;;      Temps:          0       0       0       0       0       0       0       0
  1971 ;;      Totals:         0       0       0       0       0       0       0       0
  1972 ;;Total ram usage:        0 bytes
  1973 ;; Hardware stack levels used: 1
  1974 ;; Hardware stack levels required when called: 11
  1975 ;; This function calls:
  1976 ;;		_printf
  1977 ;; This function is called by:
  1978 ;;		_main
  1979 ;; This function uses a non-reentrant model
  1980 ;;
  1981                           
  1982                           
  1983                           ;psect for function _receiveSPICallback
  1984  0295                     _receiveSPICallback:
  1985  0295                     l1923:	
  1986                           ;incstack = 0
  1987                           ; Regs used in _receiveSPICallback: [wreg-fsr1h+status,2+status,0+pclath+cstack]
  1988                           
  1989                           
  1990                           ;mcc_generated_files/spi1.c: 150:     printf("toggling");
  1991  0295  3018               	movlw	low (STR_1| (0+32768))
  1992  0296  0140               	movlb	0	; select bank0
  1993  0297  00D0               	movwf	printf@fmt
  1994  0298  3083               	movlw	high (STR_1| (0+32768))
  1995  0299  00D1               	movwf	printf@fmt+1
  1996  029A  3182  22D3  3182   	fcall	_printf
  1997  029D                     l1925:
  1998  029D  1003               	clrc
  1999  029E  0140               	movlb	0	; select bank0
  2000  029F  1D18               	btfss	24,2	;volatile
  2001  02A0  1403               	setc
  2002  02A1  1803               	btfsc	3,0
  2003  02A2  2AA4               	goto	u911
  2004  02A3  2AA7               	goto	u910
  2005  02A4                     u911:
  2006  02A4  0140               	movlb	0	; select bank0
  2007  02A5  1518               	bsf	24,2	;volatile
  2008  02A6  2AA9               	goto	u924
  2009  02A7                     u910:
  2010  02A7  0140               	movlb	0	; select bank0
  2011  02A8  1118               	bcf	24,2	;volatile
  2012  02A9                     u924:
  2013  02A9                     l430:
  2014  02A9  0008               	return
  2015  02AA                     __end_of_receiveSPICallback:
  2016                           
  2017                           	psect	text4
  2018  025B                     __ptext4:	
  2019 ;; *************** function _pushButtonCallback *****************
  2020 ;; Defined at:
  2021 ;;		line 179 in file "mcc_generated_files/pin_manager.c"
  2022 ;; Parameters:    Size  Location     Type
  2023 ;;		None
  2024 ;; Auto vars:     Size  Location     Type
  2025 ;;		None
  2026 ;; Return value:  Size  Location     Type
  2027 ;;                  1    wreg      void 
  2028 ;; Registers used:
  2029 ;;		wreg, fsr0l, fsr0h, fsr1l, fsr1h, status,2, status,0, pclath, cstack
  2030 ;; Tracked objects:
  2031 ;;		On entry : 0/0
  2032 ;;		On exit  : 0/0
  2033 ;;		Unchanged: 0/0
  2034 ;; Data sizes:     COMMON   BANK0   BANK1   BANK2   BANK3   BANK4   BANK5   BANK6
  2035 ;;      Params:         0       0       0       0       0       0       0       0
  2036 ;;      Locals:         0       0       0       0       0       0       0       0
  2037 ;;      Temps:          0       0       0       0       0       0       0       0
  2038 ;;      Totals:         0       0       0       0       0       0       0       0
  2039 ;;Total ram usage:        0 bytes
  2040 ;; Hardware stack levels used: 1
  2041 ;; Hardware stack levels required when called: 11
  2042 ;; This function calls:
  2043 ;;		_SPI1_WriteByte
  2044 ;;		_printf
  2045 ;; This function is called by:
  2046 ;;		_main
  2047 ;; This function uses a non-reentrant model
  2048 ;;
  2049                           
  2050                           
  2051                           ;psect for function _pushButtonCallback
  2052  025B                     _pushButtonCallback:
  2053  025B                     l1909:	
  2054                           ;incstack = 0
  2055                           ; Regs used in _pushButtonCallback: [wreg-fsr1h+status,2+status,0+pclath+cstack]
  2056                           
  2057                           
  2058                           ;mcc_generated_files/pin_manager.c: 180:     if (FLAGS.bits.BUTTON_DEBOUNCED == 1) {
  2059  025B  0140               	movlb	0	; select bank0
  2060  025C  1DBE               	btfss	_FLAGS,3
  2061  025D  2A5F               	goto	u861
  2062  025E  2A60               	goto	u860
  2063  025F                     u861:
  2064  025F  2A78               	goto	l176
  2065  0260                     u860:
  2066  0260                     l1911:
  2067                           
  2068                           ;mcc_generated_files/pin_manager.c: 181:         SPI1_WriteByte('u');
  2069  0260  3075               	movlw	117
  2070  0261  3183  235C  3182   	fcall	_SPI1_WriteByte
  2071  0264                     l1913:
  2072                           
  2073                           ;mcc_generated_files/pin_manager.c: 182:         printf("toggling");
  2074  0264  3018               	movlw	low (STR_1| (0+32768))
  2075  0265  0140               	movlb	0	; select bank0
  2076  0266  00D0               	movwf	printf@fmt
  2077  0267  3083               	movlw	high (STR_1| (0+32768))
  2078  0268  00D1               	movwf	printf@fmt+1
  2079  0269  3182  22D3  3182   	fcall	_printf
  2080  026C                     l1915:
  2081  026C  1003               	clrc
  2082  026D  0140               	movlb	0	; select bank0
  2083  026E  1D18               	btfss	24,2	;volatile
  2084  026F  1403               	setc
  2085  0270  1803               	btfsc	3,0
  2086  0271  2A73               	goto	u871
  2087  0272  2A76               	goto	u870
  2088  0273                     u871:
  2089  0273  0140               	movlb	0	; select bank0
  2090  0274  1518               	bsf	24,2	;volatile
  2091  0275  2A78               	goto	u884
  2092  0276                     u870:
  2093  0276  0140               	movlb	0	; select bank0
  2094  0277  1118               	bcf	24,2	;volatile
  2095  0278                     u884:
  2096  0278                     l176:
  2097  0278  0008               	return
  2098  0279                     __end_of_pushButtonCallback:
  2099                           
  2100                           	psect	text5
  2101  02D3                     __ptext5:	
  2102 ;; *************** function _printf *****************
  2103 ;; Defined at:
  2104 ;;		line 5 in file "/Applications/microchip/xc8/v2.32/pic/sources/c99/common/printf.c"
  2105 ;; Parameters:    Size  Location     Type
  2106 ;;  fmt             2   15[BANK0 ] PTR const unsigned char 
  2107 ;;		 -> STR_2(9), STR_1(9), 
  2108 ;; Auto vars:     Size  Location     Type
  2109 ;;  ret             2    0        int 
  2110 ;;  ap              1   18[BANK0 ] PTR void [1]
  2111 ;;		 -> ?_printf(2), 
  2112 ;; Return value:  Size  Location     Type
  2113 ;;                  2   15[BANK0 ] int 
  2114 ;; Registers used:
  2115 ;;		wreg, fsr0l, fsr0h, fsr1l, fsr1h, status,2, status,0, pclath, cstack
  2116 ;; Tracked objects:
  2117 ;;		On entry : 0/0
  2118 ;;		On exit  : 0/0
  2119 ;;		Unchanged: 0/0
  2120 ;; Data sizes:     COMMON   BANK0   BANK1   BANK2   BANK3   BANK4   BANK5   BANK6
  2121 ;;      Params:         0       2       0       0       0       0       0       0
  2122 ;;      Locals:         0       1       0       0       0       0       0       0
  2123 ;;      Temps:          0       1       0       0       0       0       0       0
  2124 ;;      Totals:         0       4       0       0       0       0       0       0
  2125 ;;Total ram usage:        4 bytes
  2126 ;; Hardware stack levels used: 1
  2127 ;; Hardware stack levels required when called: 10
  2128 ;; This function calls:
  2129 ;;		_vfprintf
  2130 ;; This function is called by:
  2131 ;;		_pushButtonCallback
  2132 ;;		_receiveSPICallback
  2133 ;; This function uses a non-reentrant model
  2134 ;;
  2135                           
  2136                           
  2137                           ;psect for function _printf
  2138  02D3                     _printf:
  2139  02D3                     l1899:	
  2140                           ;incstack = 0
  2141                           ; Regs used in _printf: [wreg-fsr1h+status,2+status,0+pclath+cstack]
  2142                           
  2143  02D3  3052               	movlw	(low ((?_printf| 0+2)))& (0+255)
  2144  02D4  0140               	movlb	0	; select bank0
  2145  02D5  00D2               	movwf	??_printf
  2146  02D6  0852               	movf	??_printf,w
  2147  02D7  00D3               	movwf	printf@ap
  2148  02D8                     l1901:
  2149  02D8  0851               	movf	printf@fmt+1,w
  2150  02D9  00C9               	movwf	vfprintf@fmt+1
  2151  02DA  0850               	movf	printf@fmt,w
  2152  02DB  00C8               	movwf	vfprintf@fmt
  2153  02DC  3053               	movlw	(low (printf@ap| 0))& (0+255)
  2154  02DD  00D2               	movwf	??_printf
  2155  02DE  0852               	movf	??_printf,w
  2156  02DF  00CA               	movwf	vfprintf@ap
  2157  02E0  3000               	movlw	0
  2158  02E1  3182  2233  3182   	fcall	_vfprintf
  2159  02E4                     l999:
  2160  02E4  0008               	return
  2161  02E5                     __end_of_printf:
  2162                           
  2163                           	psect	text6
  2164  0233                     __ptext6:	
  2165 ;; *************** function _vfprintf *****************
  2166 ;; Defined at:
  2167 ;;		line 1390 in file "/Applications/microchip/xc8/v2.32/pic/sources/c99/common/doprnt.c"
  2168 ;; Parameters:    Size  Location     Type
  2169 ;;  fp              1    wreg     PTR struct _IO_FILE
  2170 ;;		 -> NULL(0), 
  2171 ;;  fmt             2    7[BANK0 ] PTR const unsigned char 
  2172 ;;		 -> STR_2(9), STR_1(9), 
  2173 ;;  ap              1    9[BANK0 ] PTR PTR void 
  2174 ;;		 -> printf@ap(1), 
  2175 ;; Auto vars:     Size  Location     Type
  2176 ;;  fp              1   12[BANK0 ] PTR struct _IO_FILE
  2177 ;;		 -> NULL(0), 
  2178 ;;  cfmt            2   13[BANK0 ] PTR unsigned char 
  2179 ;;		 -> STR_2(9), STR_1(9), 
  2180 ;; Return value:  Size  Location     Type
  2181 ;;                  2    7[BANK0 ] int 
  2182 ;; Registers used:
  2183 ;;		wreg, fsr0l, fsr0h, fsr1l, fsr1h, status,2, status,0, pclath, cstack
  2184 ;; Tracked objects:
  2185 ;;		On entry : 0/0
  2186 ;;		On exit  : 0/0
  2187 ;;		Unchanged: 0/0
  2188 ;; Data sizes:     COMMON   BANK0   BANK1   BANK2   BANK3   BANK4   BANK5   BANK6
  2189 ;;      Params:         0       3       0       0       0       0       0       0
  2190 ;;      Locals:         0       3       0       0       0       0       0       0
  2191 ;;      Temps:          0       2       0       0       0       0       0       0
  2192 ;;      Totals:         0       8       0       0       0       0       0       0
  2193 ;;Total ram usage:        8 bytes
  2194 ;; Hardware stack levels used: 1
  2195 ;; Hardware stack levels required when called: 9
  2196 ;; This function calls:
  2197 ;;		_vfpfcnvrt
  2198 ;; This function is called by:
  2199 ;;		_printf
  2200 ;; This function uses a non-reentrant model
  2201 ;;
  2202                           
  2203                           
  2204                           ;psect for function _vfprintf
  2205  0233                     _vfprintf:
  2206                           
  2207                           ;incstack = 0
  2208                           ; Regs used in _vfprintf: [wreg-fsr1h+status,2+status,0+pclath+cstack]
  2209                           ;vfprintf@fp stored from wreg
  2210  0233  0140               	movlb	0	; select bank0
  2211  0234  00CD               	movwf	vfprintf@fp
  2212  0235                     l1887:
  2213                           
  2214                           ;/Applications/microchip/xc8/v2.32/pic/sources/c99/common/doprnt.c: 1390: int vfprintf(F
      +                          ILE *fp, const char *fmt, va_list ap);/Applications/microchip/xc8/v2.32/pic/sources/c99/
      +                          common/doprnt.c: 1391: {;/Applications/microchip/xc8/v2.32/pic/sources/c99/common/doprnt
      +                          .c: 1393:     char *cfmt;;/Applications/microchip/xc8/v2.32/pic/sources/c99/common/doprn
      +                          t.c: 1395:     cfmt = (char *)fmt;
  2215  0235  0849               	movf	vfprintf@fmt+1,w
  2216  0236  00CF               	movwf	vfprintf@cfmt+1
  2217  0237  0848               	movf	vfprintf@fmt,w
  2218  0238  00CE               	movwf	vfprintf@cfmt
  2219  0239                     l1889:
  2220                           
  2221                           ;/Applications/microchip/xc8/v2.32/pic/sources/c99/common/doprnt.c: 1396:     nout = 0;
  2222  0239  01B0               	clrf	_nout
  2223  023A  01B1               	clrf	_nout+1
  2224                           
  2225                           ;/Applications/microchip/xc8/v2.32/pic/sources/c99/common/doprnt.c: 1397:     while (*cf
      +                          mt) {
  2226  023B  2A4D               	goto	l1893
  2227  023C                     l1891:
  2228                           
  2229                           ;/Applications/microchip/xc8/v2.32/pic/sources/c99/common/doprnt.c: 1398:         nout +
      +                          = vfpfcnvrt(fp, &cfmt, ap);
  2230  023C  304E               	movlw	(low (vfprintf@cfmt| 0))& (0+255)
  2231  023D  00CB               	movwf	??_vfprintf
  2232  023E  084B               	movf	??_vfprintf,w
  2233  023F  00C1               	movwf	vfpfcnvrt@fmt
  2234  0240  084A               	movf	vfprintf@ap,w
  2235  0241  00CC               	movwf	??_vfprintf+1
  2236  0242  084C               	movf	??_vfprintf+1,w
  2237  0243  00C2               	movwf	vfpfcnvrt@ap
  2238  0244  084D               	movf	vfprintf@fp,w
  2239  0245  3180  2046  3182   	fcall	_vfpfcnvrt
  2240  0248  0140               	movlb	0	; select bank0
  2241  0249  0841               	movf	?_vfpfcnvrt,w
  2242  024A  07B0               	addwf	_nout,f
  2243  024B  0842               	movf	?_vfpfcnvrt+1,w
  2244  024C  3DB1               	addwfc	_nout+1,f
  2245  024D                     l1893:
  2246                           
  2247                           ;/Applications/microchip/xc8/v2.32/pic/sources/c99/common/doprnt.c: 1397:     while (*cf
      +                          mt) {
  2248  024D  084E               	movf	vfprintf@cfmt,w
  2249  024E  0084               	movwf	4
  2250  024F  084F               	movf	vfprintf@cfmt+1,w
  2251  0250  0085               	movwf	5
  2252  0251  0012               	moviw fsr0++
  2253  0252  1D03               	btfss	3,2
  2254  0253  2A55               	goto	u851
  2255  0254  2A56               	goto	u850
  2256  0255                     u851:
  2257  0255  2A3C               	goto	l1891
  2258  0256                     u850:
  2259  0256                     l1895:
  2260                           
  2261                           ;/Applications/microchip/xc8/v2.32/pic/sources/c99/common/doprnt.c: 1400:     return nou
      +                          t;
  2262  0256  0831               	movf	_nout+1,w
  2263  0257  00C9               	movwf	?_vfprintf+1
  2264  0258  0830               	movf	_nout,w
  2265  0259  00C8               	movwf	?_vfprintf
  2266  025A                     l1038:
  2267  025A  0008               	return
  2268  025B                     __end_of_vfprintf:
  2269                           
  2270                           	psect	text7
  2271  0046                     __ptext7:	
  2272 ;; *************** function _vfpfcnvrt *****************
  2273 ;; Defined at:
  2274 ;;		line 692 in file "/Applications/microchip/xc8/v2.32/pic/sources/c99/common/doprnt.c"
  2275 ;; Parameters:    Size  Location     Type
  2276 ;;  fp              1    wreg     PTR struct _IO_FILE
  2277 ;;		 -> NULL(0), 
  2278 ;;  fmt             1    0[BANK0 ] PTR PTR unsigned char 
  2279 ;;		 -> vfprintf@cfmt(2), 
  2280 ;;  ap              1    1[BANK0 ] PTR PTR void 
  2281 ;;		 -> printf@ap(1), 
  2282 ;; Auto vars:     Size  Location     Type
  2283 ;;  fp              1   11[COMMON] PTR struct _IO_FILE
  2284 ;;		 -> NULL(0), 
  2285 ;;  llu             8    0        unsigned long long 
  2286 ;;  ll              8    0        long long 
  2287 ;;  f               4    0        long long 
  2288 ;;  ct              3    0        unsigned char [3]
  2289 ;;  vp              2    0        PTR void 
  2290 ;;  i               2    0        int 
  2291 ;;  done            2    0        int 
  2292 ;;  cp              2    0        PTR unsigned char 
  2293 ;;  c               1    0        unsigned char 
  2294 ;; Return value:  Size  Location     Type
  2295 ;;                  2    0[BANK0 ] int 
  2296 ;; Registers used:
  2297 ;;		wreg, fsr0l, fsr0h, fsr1l, fsr1h, status,2, status,0, pclath, cstack
  2298 ;; Tracked objects:
  2299 ;;		On entry : 0/0
  2300 ;;		On exit  : 0/0
  2301 ;;		Unchanged: 0/0
  2302 ;; Data sizes:     COMMON   BANK0   BANK1   BANK2   BANK3   BANK4   BANK5   BANK6
  2303 ;;      Params:         0       2       0       0       0       0       0       0
  2304 ;;      Locals:         1       0       0       0       0       0       0       0
  2305 ;;      Temps:          0       5       0       0       0       0       0       0
  2306 ;;      Totals:         1       7       0       0       0       0       0       0
  2307 ;;Total ram usage:        8 bytes
  2308 ;; Hardware stack levels used: 1
  2309 ;; Hardware stack levels required when called: 8
  2310 ;; This function calls:
  2311 ;;		_fputc
  2312 ;; This function is called by:
  2313 ;;		_vfprintf
  2314 ;; This function uses a non-reentrant model
  2315 ;;
  2316                           
  2317                           
  2318                           ;psect for function _vfpfcnvrt
  2319  0046                     _vfpfcnvrt:
  2320                           
  2321                           ;incstack = 0
  2322                           ; Regs used in _vfpfcnvrt: [wreg-fsr1h+status,2+status,0+pclath+cstack]
  2323                           ;vfpfcnvrt@fp stored from wreg
  2324  0046  00FB               	movwf	vfpfcnvrt@fp
  2325  0047                     l1855:
  2326                           
  2327                           ;/Applications/microchip/xc8/v2.32/pic/sources/c99/common/doprnt.c: 692: static int vfpf
      +                          cnvrt(FILE *fp, char *fmt[], va_list ap);/Applications/microchip/xc8/v2.32/pic/sources/c
      +                          99/common/doprnt.c: 693: {;/Applications/microchip/xc8/v2.32/pic/sources/c99/common/dopr
      +                          nt.c: 694:     char c, *cp, ct[3];;/Applications/microchip/xc8/v2.32/pic/sources/c99/com
      +                          mon/doprnt.c: 695:     int done, i;;/Applications/microchip/xc8/v2.32/pic/sources/c99/co
      +                          mmon/doprnt.c: 696:     long long ll;;/Applications/microchip/xc8/v2.32/pic/sources/c99/
      +                          common/doprnt.c: 697:     unsigned long long llu;
  2328  0047  0140               	movlb	0	; select bank0
  2329  0048  0841               	movf	vfpfcnvrt@fmt,w
  2330  0049  0086               	movwf	6
  2331  004A  0187               	clrf	7
  2332  004B  3F40               	moviw [0]fsr1
  2333  004C  00C3               	movwf	??_vfpfcnvrt
  2334  004D  3F41               	moviw [1]fsr1
  2335  004E  00C4               	movwf	??_vfpfcnvrt+1
  2336  004F  0843               	movf	??_vfpfcnvrt,w
  2337  0050  0084               	movwf	4
  2338  0051  0844               	movf	??_vfpfcnvrt+1,w
  2339  0052  0085               	movwf	5
  2340  0053  0012               	moviw fsr0++
  2341  0054  3A25               	xorlw	37
  2342  0055  1D03               	btfss	3,2
  2343  0056  2858               	goto	u831
  2344  0057  2859               	goto	u830
  2345  0058                     u831:
  2346  0058  289E               	goto	l1879
  2347  0059                     u830:
  2348  0059                     l1857:
  2349                           
  2350                           ;/Applications/microchip/xc8/v2.32/pic/sources/c99/common/doprnt.c: 703:         ++*fmt;
  2351  0059  0841               	movf	vfpfcnvrt@fmt,w
  2352  005A  0086               	movwf	6
  2353  005B  0187               	clrf	7
  2354  005C  3001               	movlw	1
  2355  005D  0781               	addwf	1,f
  2356  005E  3141               	addfsr 1,1
  2357  005F  1803               	skipnc
  2358  0060  0A81               	incf	1,f
  2359  0061                     l1859:
  2360                           
  2361                           ;/Applications/microchip/xc8/v2.32/pic/sources/c99/common/doprnt.c: 705:         flags =
      +                           width = 0;
  2362  0061  01B2               	clrf	_width
  2363  0062  01B3               	clrf	_width+1
  2364  0063  01B6               	clrf	_flags
  2365  0064  01B7               	clrf	_flags+1
  2366  0065                     l1861:
  2367                           
  2368                           ;/Applications/microchip/xc8/v2.32/pic/sources/c99/common/doprnt.c: 706:         prec = 
      +                          -1;
  2369  0065  30FF               	movlw	255
  2370  0066  00B4               	movwf	_prec
  2371  0067  30FF               	movlw	255
  2372  0068  00B5               	movwf	_prec+1
  2373  0069                     l1863:
  2374                           
  2375                           ;/Applications/microchip/xc8/v2.32/pic/sources/c99/common/doprnt.c: 1372:         if ((*
      +                          fmt)[0] == '%') {
  2376  0069  0841               	movf	vfpfcnvrt@fmt,w
  2377  006A  0086               	movwf	6
  2378  006B  0187               	clrf	7
  2379  006C  3F40               	moviw [0]fsr1
  2380  006D  00C3               	movwf	??_vfpfcnvrt
  2381  006E  3F41               	moviw [1]fsr1
  2382  006F  00C4               	movwf	??_vfpfcnvrt+1
  2383  0070  0843               	movf	??_vfpfcnvrt,w
  2384  0071  0084               	movwf	4
  2385  0072  0844               	movf	??_vfpfcnvrt+1,w
  2386  0073  0085               	movwf	5
  2387  0074  0012               	moviw fsr0++
  2388  0075  3A25               	xorlw	37
  2389  0076  1D03               	btfss	3,2
  2390  0077  2879               	goto	u841
  2391  0078  287A               	goto	u840
  2392  0079                     u841:
  2393  0079  2893               	goto	l1873
  2394  007A                     u840:
  2395  007A                     l1865:
  2396                           
  2397                           ;/Applications/microchip/xc8/v2.32/pic/sources/c99/common/doprnt.c: 1373:             ++
      +                          *fmt;
  2398  007A  0841               	movf	vfpfcnvrt@fmt,w
  2399  007B  0086               	movwf	6
  2400  007C  0187               	clrf	7
  2401  007D  3001               	movlw	1
  2402  007E  0781               	addwf	1,f
  2403  007F  3141               	addfsr 1,1
  2404  0080  1803               	skipnc
  2405  0081  0A81               	incf	1,f
  2406  0082                     l1867:
  2407                           
  2408                           ;/Applications/microchip/xc8/v2.32/pic/sources/c99/common/doprnt.c: 1374:             fp
      +                          utc((int)'%', fp);
  2409  0082  3025               	movlw	37
  2410  0083  00F3               	movwf	fputc@c
  2411  0084  3000               	movlw	0
  2412  0085  00F4               	movwf	fputc@c+1
  2413  0086  087B               	movf	vfpfcnvrt@fp,w
  2414  0087  00C3               	movwf	??_vfpfcnvrt
  2415  0088  0843               	movf	??_vfpfcnvrt,w
  2416  0089  00F5               	movwf	fputc@fp
  2417  008A  3181  2111  3180   	fcall	_fputc
  2418  008D                     l1869:
  2419                           
  2420                           ;/Applications/microchip/xc8/v2.32/pic/sources/c99/common/doprnt.c: 1375:             re
      +                          turn 1;
  2421  008D  3001               	movlw	1
  2422  008E  0140               	movlb	0	; select bank0
  2423  008F  00C1               	movwf	?_vfpfcnvrt
  2424  0090  3000               	movlw	0
  2425  0091  00C2               	movwf	?_vfpfcnvrt+1
  2426  0092  28C1               	goto	l1032
  2427  0093                     l1873:
  2428                           
  2429                           ;/Applications/microchip/xc8/v2.32/pic/sources/c99/common/doprnt.c: 1379:         ++*fmt
      +                          ;
  2430  0093  0841               	movf	vfpfcnvrt@fmt,w
  2431  0094  0086               	movwf	6
  2432  0095  0187               	clrf	7
  2433  0096  3001               	movlw	1
  2434  0097  0781               	addwf	1,f
  2435  0098  3141               	addfsr 1,1
  2436  0099  1803               	skipnc
  2437  009A  0A81               	incf	1,f
  2438  009B                     l1875:
  2439                           
  2440                           ;/Applications/microchip/xc8/v2.32/pic/sources/c99/common/doprnt.c: 1380:         return
      +                           0;
  2441  009B  01C1               	clrf	?_vfpfcnvrt
  2442  009C  01C2               	clrf	?_vfpfcnvrt+1
  2443  009D  28C1               	goto	l1032
  2444  009E                     l1879:
  2445                           
  2446                           ;/Applications/microchip/xc8/v2.32/pic/sources/c99/common/doprnt.c: 1384:     fputc((int
      +                          )(*fmt)[0], fp);
  2447  009E  0841               	movf	vfpfcnvrt@fmt,w
  2448  009F  0086               	movwf	6
  2449  00A0  0187               	clrf	7
  2450  00A1  3F40               	moviw [0]fsr1
  2451  00A2  00C3               	movwf	??_vfpfcnvrt
  2452  00A3  3F41               	moviw [1]fsr1
  2453  00A4  00C4               	movwf	??_vfpfcnvrt+1
  2454  00A5  0843               	movf	??_vfpfcnvrt,w
  2455  00A6  0084               	movwf	4
  2456  00A7  0844               	movf	??_vfpfcnvrt+1,w
  2457  00A8  0085               	movwf	5
  2458  00A9  0800               	movf	0,w	;code access
  2459  00AA  00C5               	movwf	??_vfpfcnvrt+2
  2460  00AB  01C6               	clrf	??_vfpfcnvrt+3
  2461  00AC  0845               	movf	??_vfpfcnvrt+2,w
  2462  00AD  00F3               	movwf	fputc@c
  2463  00AE  0846               	movf	??_vfpfcnvrt+3,w
  2464  00AF  00F4               	movwf	fputc@c+1
  2465  00B0  087B               	movf	vfpfcnvrt@fp,w
  2466  00B1  00C7               	movwf	??_vfpfcnvrt+4
  2467  00B2  0847               	movf	??_vfpfcnvrt+4,w
  2468  00B3  00F5               	movwf	fputc@fp
  2469  00B4  3181  2111  3180   	fcall	_fputc
  2470  00B7                     l1881:
  2471                           
  2472                           ;/Applications/microchip/xc8/v2.32/pic/sources/c99/common/doprnt.c: 1385:     ++*fmt;
  2473  00B7  0140               	movlb	0	; select bank0
  2474  00B8  0841               	movf	vfpfcnvrt@fmt,w
  2475  00B9  0086               	movwf	6
  2476  00BA  0187               	clrf	7
  2477  00BB  3001               	movlw	1
  2478  00BC  0781               	addwf	1,f
  2479  00BD  3141               	addfsr 1,1
  2480  00BE  1803               	skipnc
  2481  00BF  0A81               	incf	1,f
  2482  00C0  288D               	goto	l1869
  2483  00C1                     l1032:
  2484  00C1  0008               	return
  2485  00C2                     __end_of_vfpfcnvrt:
  2486                           
  2487                           	psect	text8
  2488  0111                     __ptext8:	
  2489 ;; *************** function _fputc *****************
  2490 ;; Defined at:
  2491 ;;		line 8 in file "/Applications/microchip/xc8/v2.32/pic/sources/c99/common/nf_fputc.c"
  2492 ;; Parameters:    Size  Location     Type
  2493 ;;  c               2    3[COMMON] int 
  2494 ;;  fp              1    5[COMMON] PTR struct _IO_FILE
  2495 ;;		 -> NULL(0), 
  2496 ;; Auto vars:     Size  Location     Type
  2497 ;;		None
  2498 ;; Return value:  Size  Location     Type
  2499 ;;                  2    3[COMMON] int 
  2500 ;; Registers used:
  2501 ;;		wreg, fsr1l, fsr1h, status,2, status,0, pclath, cstack
  2502 ;; Tracked objects:
  2503 ;;		On entry : 0/0
  2504 ;;		On exit  : 0/0
  2505 ;;		Unchanged: 0/0
  2506 ;; Data sizes:     COMMON   BANK0   BANK1   BANK2   BANK3   BANK4   BANK5   BANK6
  2507 ;;      Params:         3       0       0       0       0       0       0       0
  2508 ;;      Locals:         0       0       0       0       0       0       0       0
  2509 ;;      Temps:          5       0       0       0       0       0       0       0
  2510 ;;      Totals:         8       0       0       0       0       0       0       0
  2511 ;;Total ram usage:        8 bytes
  2512 ;; Hardware stack levels used: 1
  2513 ;; Hardware stack levels required when called: 7
  2514 ;; This function calls:
  2515 ;;		_putch
  2516 ;; This function is called by:
  2517 ;;		_vfpfcnvrt
  2518 ;;		_putchar
  2519 ;; This function uses a non-reentrant model
  2520 ;;
  2521                           
  2522                           
  2523                           ;psect for function _fputc
  2524  0111                     _fputc:
  2525  0111                     l1839:	
  2526                           ;incstack = 0
  2527                           ; Regs used in _fputc: [wreg+fsr1l+fsr1h+status,2+status,0+pclath+cstack]
  2528                           
  2529  0111  0875               	movf	fputc@fp,w
  2530  0112  1903               	btfsc	3,2
  2531  0113  2915               	goto	u791
  2532  0114  2916               	goto	u790
  2533  0115                     u791:
  2534  0115  291B               	goto	l1843
  2535  0116                     u790:
  2536  0116                     l1841:
  2537  0116  0875               	movf	fputc@fp,w
  2538  0117  1D03               	btfss	3,2
  2539  0118  291A               	goto	u801
  2540  0119  291B               	goto	u800
  2541  011A                     u801:
  2542  011A  2920               	goto	l1845
  2543  011B                     u800:
  2544  011B                     l1843:
  2545  011B  0873               	movf	fputc@c,w
  2546  011C  3183  2338  3181   	fcall	_putch
  2547  011F  294F               	goto	l1851
  2548  0120                     l1845:
  2549  0120  0875               	movf	fputc@fp,w
  2550  0121  3E03               	addlw	3
  2551  0122  0086               	movwf	6
  2552  0123  0187               	clrf	7
  2553  0124  0016               	moviw fsr1++
  2554  0125  0401               	iorwf	1,w
  2555  0126  1903               	btfsc	3,2
  2556  0127  2929               	goto	u811
  2557  0128  292A               	goto	u810
  2558  0129                     u811:
  2559  0129  2947               	goto	l1849
  2560  012A                     u810:
  2561  012A                     l1847:
  2562  012A  0875               	movf	fputc@fp,w
  2563  012B  3E03               	addlw	3
  2564  012C  0086               	movwf	6
  2565  012D  0187               	clrf	7
  2566  012E  3F40               	moviw [0]fsr1
  2567  012F  00F6               	movwf	??_fputc
  2568  0130  3F41               	moviw [1]fsr1
  2569  0131  00F7               	movwf	??_fputc+1
  2570  0132  0A75               	incf	fputc@fp,w
  2571  0133  0086               	movwf	6
  2572  0134  0187               	clrf	7
  2573  0135  3F40               	moviw [0]fsr1
  2574  0136  00F8               	movwf	??_fputc+2
  2575  0137  3F41               	moviw [1]fsr1
  2576  0138  00F9               	movwf	??_fputc+3
  2577  0139  0879               	movf	??_fputc+3,w
  2578  013A  3A80               	xorlw	128
  2579  013B  00FA               	movwf	??_fputc+4
  2580  013C  0877               	movf	??_fputc+1,w
  2581  013D  3A80               	xorlw	128
  2582  013E  027A               	subwf	??_fputc+4,w
  2583  013F  1D03               	skipz
  2584  0140  2943               	goto	u825
  2585  0141  0876               	movf	??_fputc,w
  2586  0142  0278               	subwf	??_fputc+2,w
  2587  0143                     u825:
  2588  0143  1803               	skipnc
  2589  0144  2946               	goto	u821
  2590  0145  2947               	goto	u820
  2591  0146                     u821:
  2592  0146  294F               	goto	l1851
  2593  0147                     u820:
  2594  0147                     l1849:
  2595  0147  0A75               	incf	fputc@fp,w
  2596  0148  0086               	movwf	6
  2597  0149  0187               	clrf	7
  2598  014A  3001               	movlw	1
  2599  014B  0781               	addwf	1,f
  2600  014C  3141               	addfsr 1,1
  2601  014D  1803               	skipnc
  2602  014E  0A81               	incf	1,f
  2603  014F                     l1851:
  2604  014F  0873               	movf	fputc@c,w
  2605  0150  00F6               	movwf	??_fputc
  2606  0151  01F7               	clrf	??_fputc+1
  2607  0152  0876               	movf	??_fputc,w
  2608  0153  00F3               	movwf	?_fputc
  2609  0154  0877               	movf	??_fputc+1,w
  2610  0155  00F4               	movwf	?_fputc+1
  2611  0156                     l1050:
  2612  0156  0008               	return
  2613  0157                     __end_of_fputc:
  2614                           
  2615                           	psect	text9
  2616  0338                     __ptext9:	
  2617 ;; *************** function _putch *****************
  2618 ;; Defined at:
  2619 ;;		line 169 in file "mcc_generated_files/eusart1.c"
  2620 ;; Parameters:    Size  Location     Type
  2621 ;;  txData          1    wreg     unsigned char 
  2622 ;; Auto vars:     Size  Location     Type
  2623 ;;  txData          1    2[COMMON] unsigned char 
  2624 ;; Return value:  Size  Location     Type
  2625 ;;                  1    wreg      void 
  2626 ;; Registers used:
  2627 ;;		wreg, status,2, status,0, pclath, cstack
  2628 ;; Tracked objects:
  2629 ;;		On entry : 0/0
  2630 ;;		On exit  : 0/0
  2631 ;;		Unchanged: 0/0
  2632 ;; Data sizes:     COMMON   BANK0   BANK1   BANK2   BANK3   BANK4   BANK5   BANK6
  2633 ;;      Params:         0       0       0       0       0       0       0       0
  2634 ;;      Locals:         1       0       0       0       0       0       0       0
  2635 ;;      Temps:          0       0       0       0       0       0       0       0
  2636 ;;      Totals:         1       0       0       0       0       0       0       0
  2637 ;;Total ram usage:        1 bytes
  2638 ;; Hardware stack levels used: 1
  2639 ;; Hardware stack levels required when called: 6
  2640 ;; This function calls:
  2641 ;;		_EUSART1_Write
  2642 ;; This function is called by:
  2643 ;;		_fputc
  2644 ;; This function uses a non-reentrant model
  2645 ;;
  2646                           
  2647                           
  2648                           ;psect for function _putch
  2649  0338                     _putch:
  2650                           
  2651                           ;incstack = 0
  2652                           ; Regs used in _putch: [wreg+status,2+status,0+pclath+cstack]
  2653                           ;putch@txData stored from wreg
  2654  0338  00F2               	movwf	putch@txData
  2655  0339                     l1837:
  2656                           
  2657                           ;mcc_generated_files/eusart1.c: 170:     EUSART1_Write(txData);
  2658  0339  0872               	movf	putch@txData,w
  2659  033A  3183  230E  3183   	fcall	_EUSART1_Write
  2660  033D                     l299:
  2661  033D  0008               	return
  2662  033E                     __end_of_putch:
  2663                           
  2664                           	psect	text10
  2665  030E                     __ptext10:	
  2666 ;; *************** function _EUSART1_Write *****************
  2667 ;; Defined at:
  2668 ;;		line 158 in file "mcc_generated_files/eusart1.c"
  2669 ;; Parameters:    Size  Location     Type
  2670 ;;  txData          1    wreg     unsigned char 
  2671 ;; Auto vars:     Size  Location     Type
  2672 ;;  txData          1    1[COMMON] unsigned char 
  2673 ;; Return value:  Size  Location     Type
  2674 ;;                  1    wreg      void 
  2675 ;; Registers used:
  2676 ;;		wreg
  2677 ;; Tracked objects:
  2678 ;;		On entry : 0/0
  2679 ;;		On exit  : 0/0
  2680 ;;		Unchanged: 0/0
  2681 ;; Data sizes:     COMMON   BANK0   BANK1   BANK2   BANK3   BANK4   BANK5   BANK6
  2682 ;;      Params:         0       0       0       0       0       0       0       0
  2683 ;;      Locals:         1       0       0       0       0       0       0       0
  2684 ;;      Temps:          0       0       0       0       0       0       0       0
  2685 ;;      Totals:         1       0       0       0       0       0       0       0
  2686 ;;Total ram usage:        1 bytes
  2687 ;; Hardware stack levels used: 1
  2688 ;; Hardware stack levels required when called: 5
  2689 ;; This function calls:
  2690 ;;		Nothing
  2691 ;; This function is called by:
  2692 ;;		_putch
  2693 ;; This function uses a non-reentrant model
  2694 ;;
  2695                           
  2696                           
  2697                           ;psect for function _EUSART1_Write
  2698  030E                     _EUSART1_Write:
  2699                           
  2700                           ;incstack = 0
  2701                           ; Regs used in _EUSART1_Write: [wreg]
  2702                           ;EUSART1_Write@txData stored from wreg
  2703  030E  00F1               	movwf	EUSART1_Write@txData
  2704  030F                     l1833:
  2705  030F                     l290:	
  2706                           ;mcc_generated_files/eusart1.c: 160:     }
  2707                           
  2708                           
  2709                           ;mcc_generated_files/eusart1.c: 159:     while (0 == PIR1bits.TX1IF) {
  2710  030F  014E               	movlb	14	; select bank14
  2711  0310  1D8D               	btfss	13,3	;volatile
  2712  0311  2B13               	goto	u781
  2713  0312  2B14               	goto	u780
  2714  0313                     u781:
  2715  0313  2B0F               	goto	l290
  2716  0314                     u780:
  2717  0314                     l1835:
  2718                           
  2719                           ;mcc_generated_files/eusart1.c: 162:     TX1REG = txData;
  2720  0314  0871               	movf	EUSART1_Write@txData,w
  2721  0315  0142               	movlb	2	; select bank2
  2722  0316  009A               	movwf	26	;volatile
  2723  0317                     l293:
  2724  0317  0008               	return
  2725  0318                     __end_of_EUSART1_Write:
  2726                           
  2727                           	psect	text11
  2728  035C                     __ptext11:	
  2729 ;; *************** function _SPI1_WriteByte *****************
  2730 ;; Defined at:
  2731 ;;		line 139 in file "mcc_generated_files/spi1.c"
  2732 ;; Parameters:    Size  Location     Type
  2733 ;;  byte            1    wreg     unsigned char 
  2734 ;; Auto vars:     Size  Location     Type
  2735 ;;  byte            1    1[COMMON] unsigned char 
  2736 ;; Return value:  Size  Location     Type
  2737 ;;                  1    wreg      void 
  2738 ;; Registers used:
  2739 ;;		wreg
  2740 ;; Tracked objects:
  2741 ;;		On entry : 0/0
  2742 ;;		On exit  : 0/0
  2743 ;;		Unchanged: 0/0
  2744 ;; Data sizes:     COMMON   BANK0   BANK1   BANK2   BANK3   BANK4   BANK5   BANK6
  2745 ;;      Params:         0       0       0       0       0       0       0       0
  2746 ;;      Locals:         1       0       0       0       0       0       0       0
  2747 ;;      Temps:          0       0       0       0       0       0       0       0
  2748 ;;      Totals:         1       0       0       0       0       0       0       0
  2749 ;;Total ram usage:        1 bytes
  2750 ;; Hardware stack levels used: 1
  2751 ;; Hardware stack levels required when called: 5
  2752 ;; This function calls:
  2753 ;;		Nothing
  2754 ;; This function is called by:
  2755 ;;		_pushButtonCallback
  2756 ;;		_receiveSerialCallback
  2757 ;; This function uses a non-reentrant model
  2758 ;;
  2759                           
  2760                           
  2761                           ;psect for function _SPI1_WriteByte
  2762  035C                     _SPI1_WriteByte:
  2763                           
  2764                           ;incstack = 0
  2765                           ; Regs used in _SPI1_WriteByte: [wreg]
  2766                           ;SPI1_WriteByte@byte stored from wreg
  2767  035C  00F1               	movwf	SPI1_WriteByte@byte
  2768  035D                     l1663:
  2769                           
  2770                           ;mcc_generated_files/spi1.c: 139: void SPI1_WriteByte(uint8_t byte);mcc_generated_files/
      +                          spi1.c: 140: {;mcc_generated_files/spi1.c: 141:     SSP1BUF = byte;
  2771  035D  0871               	movf	SPI1_WriteByte@byte,w
  2772  035E  0143               	movlb	3	; select bank3
  2773  035F  008C               	movwf	12	;volatile
  2774  0360                     l422:
  2775  0360  0008               	return
  2776  0361                     __end_of_SPI1_WriteByte:
  2777                           
  2778                           	psect	text12
  2779  02AA                     __ptext12:	
  2780 ;; *************** function _debouncePushButton *****************
  2781 ;; Defined at:
  2782 ;;		line 187 in file "mcc_generated_files/pin_manager.c"
  2783 ;; Parameters:    Size  Location     Type
  2784 ;;		None
  2785 ;; Auto vars:     Size  Location     Type
  2786 ;;		None
  2787 ;; Return value:  Size  Location     Type
  2788 ;;                  1    wreg      void 
  2789 ;; Registers used:
  2790 ;;		wreg, status,2, status,0
  2791 ;; Tracked objects:
  2792 ;;		On entry : 0/0
  2793 ;;		On exit  : 0/0
  2794 ;;		Unchanged: 0/0
  2795 ;; Data sizes:     COMMON   BANK0   BANK1   BANK2   BANK3   BANK4   BANK5   BANK6
  2796 ;;      Params:         0       0       0       0       0       0       0       0
  2797 ;;      Locals:         0       0       0       0       0       0       0       0
  2798 ;;      Temps:          0       0       0       0       0       0       0       0
  2799 ;;      Totals:         0       0       0       0       0       0       0       0
  2800 ;;Total ram usage:        0 bytes
  2801 ;; Hardware stack levels used: 1
  2802 ;; Hardware stack levels required when called: 5
  2803 ;; This function calls:
  2804 ;;		Nothing
  2805 ;; This function is called by:
  2806 ;;		_main
  2807 ;; This function uses a non-reentrant model
  2808 ;;
  2809                           
  2810                           
  2811                           ;psect for function _debouncePushButton
  2812  02AA                     _debouncePushButton:
  2813  02AA                     l1697:	
  2814                           ;incstack = 0
  2815                           ; Regs used in _debouncePushButton: [wreg+status,2+status,0]
  2816                           
  2817                           
  2818                           ;mcc_generated_files/pin_manager.c: 188:     static int count = 255;;mcc_generated_files
      +                          /pin_manager.c: 189:     if (FLAGS.bits.BUTTON_PUSHED) {
  2819  02AA  0140               	movlb	0	; select bank0
  2820  02AB  1D3E               	btfss	_FLAGS,2
  2821  02AC  2AAE               	goto	u561
  2822  02AD  2AAF               	goto	u560
  2823  02AE                     u561:
  2824  02AE  2ABE               	goto	l183
  2825  02AF                     u560:
  2826  02AF                     l1699:
  2827                           
  2828                           ;mcc_generated_files/pin_manager.c: 190:         count--;
  2829  02AF  30FF               	movlw	255
  2830  02B0  07DE               	addwf	debouncePushButton@count,f
  2831  02B1  30FF               	movlw	255
  2832  02B2  3DDF               	addwfc	debouncePushButton@count+1,f
  2833  02B3                     l1701:
  2834                           
  2835                           ;mcc_generated_files/pin_manager.c: 191:         if (count == 0) {
  2836  02B3  085E               	movf	debouncePushButton@count,w
  2837  02B4  045F               	iorwf	debouncePushButton@count+1,w
  2838  02B5  1D03               	btfss	3,2
  2839  02B6  2AB8               	goto	u571
  2840  02B7  2AB9               	goto	u570
  2841  02B8                     u571:
  2842  02B8  2ABE               	goto	l183
  2843  02B9                     u570:
  2844  02B9                     l1703:
  2845                           
  2846                           ;mcc_generated_files/pin_manager.c: 192:             FLAGS.bits.BUTTON_DEBOUNCED = 1;
  2847  02B9  15BE               	bsf	_FLAGS,3
  2848  02BA                     l1705:
  2849                           
  2850                           ;mcc_generated_files/pin_manager.c: 193:             count = 255;
  2851  02BA  30FF               	movlw	255
  2852  02BB  00DE               	movwf	debouncePushButton@count
  2853  02BC  3000               	movlw	0
  2854  02BD  00DF               	movwf	debouncePushButton@count+1
  2855  02BE                     l183:
  2856  02BE  0008               	return
  2857  02BF                     __end_of_debouncePushButton:
  2858                           
  2859                           	psect	text13
  2860  02E5                     __ptext13:	
  2861 ;; *************** function _SYSTEM_Initialize *****************
  2862 ;; Defined at:
  2863 ;;		line 50 in file "mcc_generated_files/mcc.c"
  2864 ;; Parameters:    Size  Location     Type
  2865 ;;		None
  2866 ;; Auto vars:     Size  Location     Type
  2867 ;;		None
  2868 ;; Return value:  Size  Location     Type
  2869 ;;                  1    wreg      void 
  2870 ;; Registers used:
  2871 ;;		wreg, status,2, status,0, pclath, cstack
  2872 ;; Tracked objects:
  2873 ;;		On entry : 0/0
  2874 ;;		On exit  : 0/0
  2875 ;;		Unchanged: 0/0
  2876 ;; Data sizes:     COMMON   BANK0   BANK1   BANK2   BANK3   BANK4   BANK5   BANK6
  2877 ;;      Params:         0       0       0       0       0       0       0       0
  2878 ;;      Locals:         0       0       0       0       0       0       0       0
  2879 ;;      Temps:          0       0       0       0       0       0       0       0
  2880 ;;      Totals:         0       0       0       0       0       0       0       0
  2881 ;;Total ram usage:        0 bytes
  2882 ;; Hardware stack levels used: 1
  2883 ;; Hardware stack levels required when called: 7
  2884 ;; This function calls:
  2885 ;;		_EUSART1_Initialize
  2886 ;;		_OSCILLATOR_Initialize
  2887 ;;		_PIN_MANAGER_Initialize
  2888 ;;		_SPI1_Initialize
  2889 ;;		_WDT_Initialize
  2890 ;; This function is called by:
  2891 ;;		_main
  2892 ;; This function uses a non-reentrant model
  2893 ;;
  2894                           
  2895                           
  2896                           ;psect for function _SYSTEM_Initialize
  2897  02E5                     _SYSTEM_Initialize:
  2898  02E5                     l1683:	
  2899                           ;incstack = 0
  2900                           ; Regs used in _SYSTEM_Initialize: [wreg+status,2+status,0+pclath+cstack]
  2901                           
  2902                           
  2903                           ;mcc_generated_files/mcc.c: 53:     SPI1_Initialize();
  2904  02E5  3182  22BF  3182   	fcall	_SPI1_Initialize
  2905                           
  2906                           ;mcc_generated_files/mcc.c: 54:     PIN_MANAGER_Initialize();
  2907  02E8  3181  2157  3182   	fcall	_PIN_MANAGER_Initialize
  2908  02EB                     l1685:
  2909                           
  2910                           ;mcc_generated_files/mcc.c: 55:     OSCILLATOR_Initialize();
  2911  02EB  3183  2361  3182   	fcall	_OSCILLATOR_Initialize
  2912  02EE                     l1687:
  2913                           
  2914                           ;mcc_generated_files/mcc.c: 56:     WDT_Initialize();
  2915  02EE  3183  2376  3182   	fcall	_WDT_Initialize
  2916                           
  2917                           ;mcc_generated_files/mcc.c: 57:     EUSART1_Initialize();
  2918  02F1  3182  2203  3182   	fcall	_EUSART1_Initialize
  2919  02F4                     l59:
  2920  02F4  0008               	return
  2921  02F5                     __end_of_SYSTEM_Initialize:
  2922                           
  2923                           	psect	text14
  2924  0376                     __ptext14:	
  2925 ;; *************** function _WDT_Initialize *****************
  2926 ;; Defined at:
  2927 ;;		line 70 in file "mcc_generated_files/mcc.c"
  2928 ;; Parameters:    Size  Location     Type
  2929 ;;		None
  2930 ;; Auto vars:     Size  Location     Type
  2931 ;;		None
  2932 ;; Return value:  Size  Location     Type
  2933 ;;                  1    wreg      void 
  2934 ;; Registers used:
  2935 ;;		status,2
  2936 ;; Tracked objects:
  2937 ;;		On entry : 0/0
  2938 ;;		On exit  : 0/0
  2939 ;;		Unchanged: 0/0
  2940 ;; Data sizes:     COMMON   BANK0   BANK1   BANK2   BANK3   BANK4   BANK5   BANK6
  2941 ;;      Params:         0       0       0       0       0       0       0       0
  2942 ;;      Locals:         0       0       0       0       0       0       0       0
  2943 ;;      Temps:          0       0       0       0       0       0       0       0
  2944 ;;      Totals:         0       0       0       0       0       0       0       0
  2945 ;;Total ram usage:        0 bytes
  2946 ;; Hardware stack levels used: 1
  2947 ;; Hardware stack levels required when called: 5
  2948 ;; This function calls:
  2949 ;;		Nothing
  2950 ;; This function is called by:
  2951 ;;		_SYSTEM_Initialize
  2952 ;; This function uses a non-reentrant model
  2953 ;;
  2954                           
  2955                           
  2956                           ;psect for function _WDT_Initialize
  2957  0376                     _WDT_Initialize:
  2958  0376                     l1633:	
  2959                           ;incstack = 0
  2960                           ; Regs used in _WDT_Initialize: [status,2]
  2961                           
  2962                           
  2963                           ;mcc_generated_files/mcc.c: 73:     WDTCON = 0x00;
  2964  0376  0150               	movlb	16	; select bank16
  2965  0377  018C               	clrf	12	;volatile
  2966  0378                     l65:
  2967  0378  0008               	return
  2968  0379                     __end_of_WDT_Initialize:
  2969                           
  2970                           	psect	text15
  2971  02BF                     __ptext15:	
  2972 ;; *************** function _SPI1_Initialize *****************
  2973 ;; Defined at:
  2974 ;;		line 65 in file "mcc_generated_files/spi1.c"
  2975 ;; Parameters:    Size  Location     Type
  2976 ;;		None
  2977 ;; Auto vars:     Size  Location     Type
  2978 ;;		None
  2979 ;; Return value:  Size  Location     Type
  2980 ;;                  1    wreg      void 
  2981 ;; Registers used:
  2982 ;;		wreg, status,2
  2983 ;; Tracked objects:
  2984 ;;		On entry : 0/0
  2985 ;;		On exit  : 0/0
  2986 ;;		Unchanged: 0/0
  2987 ;; Data sizes:     COMMON   BANK0   BANK1   BANK2   BANK3   BANK4   BANK5   BANK6
  2988 ;;      Params:         0       0       0       0       0       0       0       0
  2989 ;;      Locals:         0       0       0       0       0       0       0       0
  2990 ;;      Temps:          0       0       0       0       0       0       0       0
  2991 ;;      Totals:         0       0       0       0       0       0       0       0
  2992 ;;Total ram usage:        0 bytes
  2993 ;; Hardware stack levels used: 1
  2994 ;; Hardware stack levels required when called: 5
  2995 ;; This function calls:
  2996 ;;		Nothing
  2997 ;; This function is called by:
  2998 ;;		_SYSTEM_Initialize
  2999 ;; This function uses a non-reentrant model
  3000 ;;
  3001                           
  3002                           
  3003                           ;psect for function _SPI1_Initialize
  3004  02BF                     _SPI1_Initialize:
  3005  02BF                     l1563:	
  3006                           ;incstack = 0
  3007                           ; Regs used in _SPI1_Initialize: [wreg+status,2]
  3008                           
  3009                           
  3010                           ;mcc_generated_files/spi1.c: 68:     SSP1CLKPPS = 22;
  3011  02BF  3016               	movlw	22
  3012  02C0  017D               	movlb	61	; select bank61
  3013  02C1  00C5               	movwf	69	;volatile
  3014                           
  3015                           ;mcc_generated_files/spi1.c: 69:     SSP1DATPPS = 21;
  3016  02C2  3015               	movlw	21
  3017  02C3  00C6               	movwf	70	;volatile
  3018                           
  3019                           ;mcc_generated_files/spi1.c: 70:     RC6PPS = 7;
  3020  02C4  3007               	movlw	7
  3021  02C5  017E               	movlb	62	; select bank62
  3022  02C6  00A6               	movwf	38	;volatile
  3023                           
  3024                           ;mcc_generated_files/spi1.c: 71:     RC4PPS = 8;
  3025  02C7  3008               	movlw	8
  3026  02C8  00A4               	movwf	36	;volatile
  3027  02C9                     l1565:
  3028                           
  3029                           ;mcc_generated_files/spi1.c: 73:     SSP1STAT = 0x00;
  3030  02C9  0143               	movlb	3	; select bank3
  3031  02CA  018F               	clrf	15	;volatile
  3032  02CB                     l1567:
  3033                           
  3034                           ;mcc_generated_files/spi1.c: 74:     SSP1CON1 = 0x22;
  3035  02CB  3022               	movlw	34
  3036  02CC  0090               	movwf	16	;volatile
  3037                           
  3038                           ;mcc_generated_files/spi1.c: 75:     SSP1ADD = 0x00;
  3039  02CD  018D               	clrf	13	;volatile
  3040  02CE                     l1569:
  3041                           
  3042                           ;mcc_generated_files/spi1.c: 76:     TRISCbits.TRISC6 = 0;
  3043  02CE  0140               	movlb	0	; select bank0
  3044  02CF  1314               	bcf	20,6	;volatile
  3045  02D0                     l1571:
  3046                           
  3047                           ;mcc_generated_files/spi1.c: 77:     SSP1CON1bits.SSPEN = 0;
  3048  02D0  0143               	movlb	3	; select bank3
  3049  02D1  1290               	bcf	16,5	;volatile
  3050  02D2                     l385:
  3051  02D2  0008               	return
  3052  02D3                     __end_of_SPI1_Initialize:
  3053                           
  3054                           	psect	text16
  3055  0157                     __ptext16:	
  3056 ;; *************** function _PIN_MANAGER_Initialize *****************
  3057 ;; Defined at:
  3058 ;;		line 60 in file "mcc_generated_files/pin_manager.c"
  3059 ;; Parameters:    Size  Location     Type
  3060 ;;		None
  3061 ;; Auto vars:     Size  Location     Type
  3062 ;;		None
  3063 ;; Return value:  Size  Location     Type
  3064 ;;                  1    wreg      void 
  3065 ;; Registers used:
  3066 ;;		wreg, status,2, status,0, pclath, cstack
  3067 ;; Tracked objects:
  3068 ;;		On entry : 0/0
  3069 ;;		On exit  : 0/0
  3070 ;;		Unchanged: 0/0
  3071 ;; Data sizes:     COMMON   BANK0   BANK1   BANK2   BANK3   BANK4   BANK5   BANK6
  3072 ;;      Params:         0       0       0       0       0       0       0       0
  3073 ;;      Locals:         0       0       0       0       0       0       0       0
  3074 ;;      Temps:          0       0       0       0       0       0       0       0
  3075 ;;      Totals:         0       0       0       0       0       0       0       0
  3076 ;;Total ram usage:        0 bytes
  3077 ;; Hardware stack levels used: 1
  3078 ;; Hardware stack levels required when called: 6
  3079 ;; This function calls:
  3080 ;;		_IOCCF2_SetInterruptHandler
  3081 ;; This function is called by:
  3082 ;;		_SYSTEM_Initialize
  3083 ;; This function uses a non-reentrant model
  3084 ;;
  3085                           
  3086                           
  3087                           ;psect for function _PIN_MANAGER_Initialize
  3088  0157                     _PIN_MANAGER_Initialize:
  3089  0157                     l1573:	
  3090                           ;incstack = 0
  3091                           ; Regs used in _PIN_MANAGER_Initialize: [wreg+status,2+status,0+pclath+cstack]
  3092                           
  3093                           
  3094                           ;mcc_generated_files/pin_manager.c: 65:     LATA = 0x00;
  3095  0157  0140               	movlb	0	; select bank0
  3096  0158  0198               	clrf	24	;volatile
  3097                           
  3098                           ;mcc_generated_files/pin_manager.c: 66:     LATB = 0x00;
  3099  0159  0199               	clrf	25	;volatile
  3100                           
  3101                           ;mcc_generated_files/pin_manager.c: 67:     LATC = 0x00;
  3102  015A  019A               	clrf	26	;volatile
  3103  015B                     l1575:
  3104                           
  3105                           ;mcc_generated_files/pin_manager.c: 72:     TRISA = 0x3B;
  3106  015B  303B               	movlw	59
  3107  015C  0092               	movwf	18	;volatile
  3108  015D                     l1577:
  3109                           
  3110                           ;mcc_generated_files/pin_manager.c: 73:     TRISB = 0xF0;
  3111  015D  30F0               	movlw	240
  3112  015E  0093               	movwf	19	;volatile
  3113  015F                     l1579:
  3114                           
  3115                           ;mcc_generated_files/pin_manager.c: 74:     TRISC = 0xAE;
  3116  015F  30AE               	movlw	174
  3117  0160  0094               	movwf	20	;volatile
  3118  0161                     l1581:
  3119                           
  3120                           ;mcc_generated_files/pin_manager.c: 79:     ANSELC = 0x88;
  3121  0161  3088               	movlw	136
  3122  0162  017E               	movlb	62	; select bank62
  3123  0163  00CE               	movwf	78	;volatile
  3124  0164                     l1583:
  3125                           
  3126                           ;mcc_generated_files/pin_manager.c: 80:     ANSELB = 0x70;
  3127  0164  3070               	movlw	112
  3128  0165  00C3               	movwf	67	;volatile
  3129  0166                     l1585:
  3130                           
  3131                           ;mcc_generated_files/pin_manager.c: 81:     ANSELA = 0x33;
  3132  0166  3033               	movlw	51
  3133  0167  00B8               	movwf	56	;volatile
  3134  0168                     l1587:
  3135                           
  3136                           ;mcc_generated_files/pin_manager.c: 86:     WPUB = 0x20;
  3137  0168  3020               	movlw	32
  3138  0169  00C4               	movwf	68	;volatile
  3139  016A                     l1589:
  3140                           
  3141                           ;mcc_generated_files/pin_manager.c: 87:     WPUA = 0x00;
  3142  016A  01B9               	clrf	57	;volatile
  3143                           
  3144                           ;mcc_generated_files/pin_manager.c: 88:     WPUC = 0x04;
  3145  016B  3004               	movlw	4
  3146  016C  00CF               	movwf	79	;volatile
  3147  016D                     l1591:
  3148                           
  3149                           ;mcc_generated_files/pin_manager.c: 93:     ODCONA = 0x00;
  3150  016D  01BA               	clrf	58	;volatile
  3151  016E                     l1593:
  3152                           
  3153                           ;mcc_generated_files/pin_manager.c: 94:     ODCONB = 0x00;
  3154  016E  01C5               	clrf	69	;volatile
  3155  016F                     l1595:
  3156                           
  3157                           ;mcc_generated_files/pin_manager.c: 95:     ODCONC = 0x00;
  3158  016F  01D0               	clrf	80	;volatile
  3159  0170                     l1597:
  3160                           
  3161                           ;mcc_generated_files/pin_manager.c: 100:     SLRCONA = 0x37;
  3162  0170  3037               	movlw	55
  3163  0171  00BB               	movwf	59	;volatile
  3164  0172                     l1599:
  3165                           
  3166                           ;mcc_generated_files/pin_manager.c: 101:     SLRCONB = 0xF0;
  3167  0172  30F0               	movlw	240
  3168  0173  00C6               	movwf	70	;volatile
  3169  0174                     l1601:
  3170                           
  3171                           ;mcc_generated_files/pin_manager.c: 102:     SLRCONC = 0xFF;
  3172  0174  30FF               	movlw	255
  3173  0175  00D1               	movwf	81	;volatile
  3174  0176                     l1603:
  3175                           
  3176                           ;mcc_generated_files/pin_manager.c: 107:     INLVLA = 0x3F;
  3177  0176  303F               	movlw	63
  3178  0177  00BC               	movwf	60	;volatile
  3179  0178                     l1605:
  3180                           
  3181                           ;mcc_generated_files/pin_manager.c: 108:     INLVLB = 0xF0;
  3182  0178  30F0               	movlw	240
  3183  0179  00C7               	movwf	71	;volatile
  3184  017A                     l1607:
  3185                           
  3186                           ;mcc_generated_files/pin_manager.c: 109:     INLVLC = 0xFF;
  3187  017A  30FF               	movlw	255
  3188  017B  00D2               	movwf	82	;volatile
  3189  017C                     l1609:
  3190                           
  3191                           ;mcc_generated_files/pin_manager.c: 116:     IOCCFbits.IOCCF2 = 0;
  3192  017C  1155               	bcf	85,2	;volatile
  3193  017D                     l1611:
  3194                           
  3195                           ;mcc_generated_files/pin_manager.c: 118:     IOCCNbits.IOCCN2 = 0;
  3196  017D  1154               	bcf	84,2	;volatile
  3197  017E                     l1613:
  3198                           
  3199                           ;mcc_generated_files/pin_manager.c: 120:     IOCCPbits.IOCCP2 = 1;
  3200  017E  1553               	bsf	83,2	;volatile
  3201  017F                     l1615:
  3202                           
  3203                           ;mcc_generated_files/pin_manager.c: 125:     IOCCF2_SetInterruptHandler(IOCCF2_DefaultIn
      +                          terruptHandler);
  3204  017F  3079               	movlw	low _IOCCF2_DefaultInterruptHandler
  3205  0180  00F1               	movwf	IOCCF2_SetInterruptHandler@InterruptHandler
  3206  0181  3003               	movlw	high _IOCCF2_DefaultInterruptHandler
  3207  0182  00F2               	movwf	IOCCF2_SetInterruptHandler@InterruptHandler+1
  3208  0183  3183  233E  3181   	fcall	_IOCCF2_SetInterruptHandler
  3209  0186                     l1617:
  3210                           
  3211                           ;mcc_generated_files/pin_manager.c: 128:     PIE0bits.IOCIE = 1;
  3212  0186  014E               	movlb	14	; select bank14
  3213  0187  1616               	bsf	22,4	;volatile
  3214  0188                     l1619:
  3215                           
  3216                           ;mcc_generated_files/pin_manager.c: 131:     RC0PPS = 0x05;
  3217  0188  3005               	movlw	5
  3218  0189  017E               	movlb	62	; select bank62
  3219  018A  00A0               	movwf	32	;volatile
  3220  018B                     l1621:
  3221                           
  3222                           ;mcc_generated_files/pin_manager.c: 132:     RX1PPS = 0x11;
  3223  018B  3011               	movlw	17
  3224  018C  017D               	movlb	61	; select bank61
  3225  018D  00CB               	movwf	75	;volatile
  3226  018E                     l1623:
  3227                           
  3228                           ;mcc_generated_files/pin_manager.c: 133:     SSP1CLKPPS = 0x16;
  3229  018E  3016               	movlw	22
  3230  018F  00C5               	movwf	69	;volatile
  3231  0190                     l1625:
  3232                           
  3233                           ;mcc_generated_files/pin_manager.c: 134:     RC4PPS = 0x08;
  3234  0190  3008               	movlw	8
  3235  0191  017E               	movlb	62	; select bank62
  3236  0192  00A4               	movwf	36	;volatile
  3237  0193                     l1627:
  3238                           
  3239                           ;mcc_generated_files/pin_manager.c: 135:     RC6PPS = 0x07;
  3240  0193  3007               	movlw	7
  3241  0194  00A6               	movwf	38	;volatile
  3242  0195                     l1629:
  3243                           
  3244                           ;mcc_generated_files/pin_manager.c: 136:     SSP1DATPPS = 0x15;
  3245  0195  3015               	movlw	21
  3246  0196  017D               	movlb	61	; select bank61
  3247  0197  00C6               	movwf	70	;volatile
  3248  0198                     l156:
  3249  0198  0008               	return
  3250  0199                     __end_of_PIN_MANAGER_Initialize:
  3251                           
  3252                           	psect	text17
  3253  033E                     __ptext17:	
  3254 ;; *************** function _IOCCF2_SetInterruptHandler *****************
  3255 ;; Defined at:
  3256 ;;		line 166 in file "mcc_generated_files/pin_manager.c"
  3257 ;; Parameters:    Size  Location     Type
  3258 ;;  InterruptHan    2    1[COMMON] PTR FTN()void 
  3259 ;;		 -> IOCCF2_DefaultInterruptHandler(1), 
  3260 ;; Auto vars:     Size  Location     Type
  3261 ;;		None
  3262 ;; Return value:  Size  Location     Type
  3263 ;;                  1    wreg      void 
  3264 ;; Registers used:
  3265 ;;		wreg
  3266 ;; Tracked objects:
  3267 ;;		On entry : 0/0
  3268 ;;		On exit  : 0/0
  3269 ;;		Unchanged: 0/0
  3270 ;; Data sizes:     COMMON   BANK0   BANK1   BANK2   BANK3   BANK4   BANK5   BANK6
  3271 ;;      Params:         2       0       0       0       0       0       0       0
  3272 ;;      Locals:         0       0       0       0       0       0       0       0
  3273 ;;      Temps:          0       0       0       0       0       0       0       0
  3274 ;;      Totals:         2       0       0       0       0       0       0       0
  3275 ;;Total ram usage:        2 bytes
  3276 ;; Hardware stack levels used: 1
  3277 ;; Hardware stack levels required when called: 5
  3278 ;; This function calls:
  3279 ;;		Nothing
  3280 ;; This function is called by:
  3281 ;;		_PIN_MANAGER_Initialize
  3282 ;; This function uses a non-reentrant model
  3283 ;;
  3284                           
  3285                           
  3286                           ;psect for function _IOCCF2_SetInterruptHandler
  3287  033E                     _IOCCF2_SetInterruptHandler:
  3288  033E                     l1537:	
  3289                           ;incstack = 0
  3290                           ; Regs used in _IOCCF2_SetInterruptHandler: [wreg]
  3291                           
  3292                           
  3293                           ;mcc_generated_files/pin_manager.c: 167:     IOCCF2_InterruptHandler = InterruptHandler;
  3294  033E  0872               	movf	IOCCF2_SetInterruptHandler@InterruptHandler+1,w
  3295  033F  0140               	movlb	0	; select bank0
  3296  0340  00DB               	movwf	_IOCCF2_InterruptHandler+1
  3297  0341  0871               	movf	IOCCF2_SetInterruptHandler@InterruptHandler,w
  3298  0342  00DA               	movwf	_IOCCF2_InterruptHandler
  3299  0343                     l167:
  3300  0343  0008               	return
  3301  0344                     __end_of_IOCCF2_SetInterruptHandler:
  3302                           
  3303                           	psect	text18
  3304  0361                     __ptext18:	
  3305 ;; *************** function _OSCILLATOR_Initialize *****************
  3306 ;; Defined at:
  3307 ;;		line 60 in file "mcc_generated_files/mcc.c"
  3308 ;; Parameters:    Size  Location     Type
  3309 ;;		None
  3310 ;; Auto vars:     Size  Location     Type
  3311 ;;		None
  3312 ;; Return value:  Size  Location     Type
  3313 ;;                  1    wreg      void 
  3314 ;; Registers used:
  3315 ;;		status,2
  3316 ;; Tracked objects:
  3317 ;;		On entry : 0/0
  3318 ;;		On exit  : 0/0
  3319 ;;		Unchanged: 0/0
  3320 ;; Data sizes:     COMMON   BANK0   BANK1   BANK2   BANK3   BANK4   BANK5   BANK6
  3321 ;;      Params:         0       0       0       0       0       0       0       0
  3322 ;;      Locals:         0       0       0       0       0       0       0       0
  3323 ;;      Temps:          0       0       0       0       0       0       0       0
  3324 ;;      Totals:         0       0       0       0       0       0       0       0
  3325 ;;Total ram usage:        0 bytes
  3326 ;; Hardware stack levels used: 1
  3327 ;; Hardware stack levels required when called: 5
  3328 ;; This function calls:
  3329 ;;		Nothing
  3330 ;; This function is called by:
  3331 ;;		_SYSTEM_Initialize
  3332 ;; This function uses a non-reentrant model
  3333 ;;
  3334                           
  3335                           
  3336                           ;psect for function _OSCILLATOR_Initialize
  3337  0361                     _OSCILLATOR_Initialize:
  3338  0361                     l1631:	
  3339                           ;incstack = 0
  3340                           ; Regs used in _OSCILLATOR_Initialize: [status,2]
  3341                           
  3342                           
  3343                           ;mcc_generated_files/mcc.c: 63:     OSCEN = 0x00;
  3344  0361  0151               	movlb	17	; select bank17
  3345  0362  0191               	clrf	17	;volatile
  3346                           
  3347                           ;mcc_generated_files/mcc.c: 65:     OSCFRQ = 0x00;
  3348  0363  0193               	clrf	19	;volatile
  3349                           
  3350                           ;mcc_generated_files/mcc.c: 67:     OSCTUNE = 0x00;
  3351  0364  0192               	clrf	18	;volatile
  3352  0365                     l62:
  3353  0365  0008               	return
  3354  0366                     __end_of_OSCILLATOR_Initialize:
  3355                           
  3356                           	psect	text19
  3357  0203                     __ptext19:	
  3358 ;; *************** function _EUSART1_Initialize *****************
  3359 ;; Defined at:
  3360 ;;		line 86 in file "mcc_generated_files/eusart1.c"
  3361 ;; Parameters:    Size  Location     Type
  3362 ;;		None
  3363 ;; Auto vars:     Size  Location     Type
  3364 ;;		None
  3365 ;; Return value:  Size  Location     Type
  3366 ;;                  1    wreg      void 
  3367 ;; Registers used:
  3368 ;;		wreg, status,2, status,0, pclath, cstack
  3369 ;; Tracked objects:
  3370 ;;		On entry : 0/0
  3371 ;;		On exit  : 0/0
  3372 ;;		Unchanged: 0/0
  3373 ;; Data sizes:     COMMON   BANK0   BANK1   BANK2   BANK3   BANK4   BANK5   BANK6
  3374 ;;      Params:         0       0       0       0       0       0       0       0
  3375 ;;      Locals:         0       0       0       0       0       0       0       0
  3376 ;;      Temps:          0       0       0       0       0       0       0       0
  3377 ;;      Totals:         0       0       0       0       0       0       0       0
  3378 ;;Total ram usage:        0 bytes
  3379 ;; Hardware stack levels used: 1
  3380 ;; Hardware stack levels required when called: 6
  3381 ;; This function calls:
  3382 ;;		_EUSART1_SetErrorHandler
  3383 ;;		_EUSART1_SetFramingErrorHandler
  3384 ;;		_EUSART1_SetOverrunErrorHandler
  3385 ;;		_EUSART1_SetRxInterruptHandler
  3386 ;; This function is called by:
  3387 ;;		_SYSTEM_Initialize
  3388 ;; This function uses a non-reentrant model
  3389 ;;
  3390                           
  3391                           
  3392                           ;psect for function _EUSART1_Initialize
  3393  0203                     _EUSART1_Initialize:
  3394  0203                     l1635:	
  3395                           ;incstack = 0
  3396                           ; Regs used in _EUSART1_Initialize: [wreg+status,2+status,0+pclath+cstack]
  3397                           
  3398                           
  3399                           ;mcc_generated_files/eusart1.c: 88:     PIE1bits.RC1IE = 0;
  3400  0203  014E               	movlb	14	; select bank14
  3401  0204  1217               	bcf	23,4	;volatile
  3402  0205                     l1637:
  3403                           
  3404                           ;mcc_generated_files/eusart1.c: 89:     EUSART1_SetRxInterruptHandler(EUSART1_Receive_IS
      +                          R);
  3405  0205  3099               	movlw	low _EUSART1_Receive_ISR
  3406  0206  00F1               	movwf	EUSART1_SetRxInterruptHandler@interruptHandler
  3407  0207  3001               	movlw	high _EUSART1_Receive_ISR
  3408  0208  00F2               	movwf	EUSART1_SetRxInterruptHandler@interruptHandler+1
  3409  0209  3183  2344  3182   	fcall	_EUSART1_SetRxInterruptHandler
  3410  020C                     l1639:
  3411                           
  3412                           ;mcc_generated_files/eusart1.c: 93:     BAUD1CON = 0x08;
  3413  020C  3008               	movlw	8
  3414  020D  0142               	movlb	2	; select bank2
  3415  020E  009F               	movwf	31	;volatile
  3416  020F                     l1641:
  3417                           
  3418                           ;mcc_generated_files/eusart1.c: 96:     RC1STA = 0x90;
  3419  020F  3090               	movlw	144
  3420  0210  009D               	movwf	29	;volatile
  3421  0211                     l1643:
  3422                           
  3423                           ;mcc_generated_files/eusart1.c: 99:     TX1STA = 0x24;
  3424  0211  3024               	movlw	36
  3425  0212  009E               	movwf	30	;volatile
  3426  0213                     l1645:
  3427                           
  3428                           ;mcc_generated_files/eusart1.c: 102:     SP1BRGL = 0x19;
  3429  0213  3019               	movlw	25
  3430  0214  009B               	movwf	27	;volatile
  3431  0215                     l1647:
  3432                           
  3433                           ;mcc_generated_files/eusart1.c: 105:     SP1BRGH = 0x00;
  3434  0215  019C               	clrf	28	;volatile
  3435  0216                     l1649:
  3436                           
  3437                           ;mcc_generated_files/eusart1.c: 108:     EUSART1_SetFramingErrorHandler(EUSART1_DefaultF
      +                          ramingErrorHandler);
  3438  0216  307E               	movlw	low _EUSART1_DefaultFramingErrorHandler
  3439  0217  00F1               	movwf	EUSART1_SetFramingErrorHandler@interruptHandler
  3440  0218  3003               	movlw	high _EUSART1_DefaultFramingErrorHandler
  3441  0219  00F2               	movwf	EUSART1_SetFramingErrorHandler@interruptHandler+1
  3442  021A  3183  2350  3182   	fcall	_EUSART1_SetFramingErrorHandler
  3443  021D                     l1651:
  3444                           
  3445                           ;mcc_generated_files/eusart1.c: 109:     EUSART1_SetOverrunErrorHandler(EUSART1_DefaultO
      +                          verrunErrorHandler);
  3446  021D  306A               	movlw	low _EUSART1_DefaultOverrunErrorHandler
  3447  021E  00F1               	movwf	EUSART1_SetOverrunErrorHandler@interruptHandler
  3448  021F  3003               	movlw	high _EUSART1_DefaultOverrunErrorHandler
  3449  0220  00F2               	movwf	EUSART1_SetOverrunErrorHandler@interruptHandler+1
  3450  0221  3183  234A  3182   	fcall	_EUSART1_SetOverrunErrorHandler
  3451  0224                     l1653:
  3452                           
  3453                           ;mcc_generated_files/eusart1.c: 110:     EUSART1_SetErrorHandler(EUSART1_DefaultErrorHan
      +                          dler);
  3454  0224  306E               	movlw	low _EUSART1_DefaultErrorHandler
  3455  0225  00F1               	movwf	EUSART1_SetErrorHandler@interruptHandler
  3456  0226  3003               	movlw	high _EUSART1_DefaultErrorHandler
  3457  0227  00F2               	movwf	EUSART1_SetErrorHandler@interruptHandler+1
  3458  0228  3183  2356  3182   	fcall	_EUSART1_SetErrorHandler
  3459                           
  3460                           ;mcc_generated_files/eusart1.c: 112:     eusart1RxLastError.status = 0;
  3461  022B  0140               	movlb	0	; select bank0
  3462  022C  01B8               	clrf	_eusart1RxLastError	;volatile
  3463                           
  3464                           ;mcc_generated_files/eusart1.c: 115:     eusart1RxHead = 0;
  3465  022D  01FC               	clrf	_eusart1RxHead	;volatile
  3466                           
  3467                           ;mcc_generated_files/eusart1.c: 116:     eusart1RxTail = 0;
  3468  022E  01BA               	clrf	_eusart1RxTail	;volatile
  3469                           
  3470                           ;mcc_generated_files/eusart1.c: 117:     eusart1RxCount = 0;
  3471  022F  01B9               	clrf	_eusart1RxCount	;volatile
  3472  0230                     l1655:
  3473                           
  3474                           ;mcc_generated_files/eusart1.c: 120:     PIE1bits.RC1IE = 1;
  3475  0230  014E               	movlb	14	; select bank14
  3476  0231  1617               	bsf	23,4	;volatile
  3477  0232                     l266:
  3478  0232  0008               	return
  3479  0233                     __end_of_EUSART1_Initialize:
  3480                           
  3481                           	psect	text20
  3482  0344                     __ptext20:	
  3483 ;; *************** function _EUSART1_SetRxInterruptHandler *****************
  3484 ;; Defined at:
  3485 ;;		line 242 in file "mcc_generated_files/eusart1.c"
  3486 ;; Parameters:    Size  Location     Type
  3487 ;;  interruptHan    2    1[COMMON] PTR FTN()void 
  3488 ;;		 -> EUSART1_Receive_ISR(1), 
  3489 ;; Auto vars:     Size  Location     Type
  3490 ;;		None
  3491 ;; Return value:  Size  Location     Type
  3492 ;;                  1    wreg      void 
  3493 ;; Registers used:
  3494 ;;		wreg
  3495 ;; Tracked objects:
  3496 ;;		On entry : 0/0
  3497 ;;		On exit  : 0/0
  3498 ;;		Unchanged: 0/0
  3499 ;; Data sizes:     COMMON   BANK0   BANK1   BANK2   BANK3   BANK4   BANK5   BANK6
  3500 ;;      Params:         2       0       0       0       0       0       0       0
  3501 ;;      Locals:         0       0       0       0       0       0       0       0
  3502 ;;      Temps:          0       0       0       0       0       0       0       0
  3503 ;;      Totals:         2       0       0       0       0       0       0       0
  3504 ;;Total ram usage:        2 bytes
  3505 ;; Hardware stack levels used: 1
  3506 ;; Hardware stack levels required when called: 5
  3507 ;; This function calls:
  3508 ;;		Nothing
  3509 ;; This function is called by:
  3510 ;;		_EUSART1_Initialize
  3511 ;; This function uses a non-reentrant model
  3512 ;;
  3513                           
  3514                           
  3515                           ;psect for function _EUSART1_SetRxInterruptHandler
  3516  0344                     _EUSART1_SetRxInterruptHandler:
  3517  0344                     l1541:	
  3518                           ;incstack = 0
  3519                           ; Regs used in _EUSART1_SetRxInterruptHandler: [wreg]
  3520                           
  3521                           
  3522                           ;mcc_generated_files/eusart1.c: 243:     EUSART1_RxDefaultInterruptHandler = interruptHa
      +                          ndler;
  3523  0344  0872               	movf	EUSART1_SetRxInterruptHandler@interruptHandler+1,w
  3524  0345  0140               	movlb	0	; select bank0
  3525  0346  00DD               	movwf	_EUSART1_RxDefaultInterruptHandler+1
  3526  0347  0871               	movf	EUSART1_SetRxInterruptHandler@interruptHandler,w
  3527  0348  00DC               	movwf	_EUSART1_RxDefaultInterruptHandler
  3528  0349                     l337:
  3529  0349  0008               	return
  3530  034A                     __end_of_EUSART1_SetRxInterruptHandler:
  3531                           
  3532                           	psect	text21
  3533  034A                     __ptext21:	
  3534 ;; *************** function _EUSART1_SetOverrunErrorHandler *****************
  3535 ;; Defined at:
  3536 ;;		line 234 in file "mcc_generated_files/eusart1.c"
  3537 ;; Parameters:    Size  Location     Type
  3538 ;;  interruptHan    2    1[COMMON] PTR FTN()void 
  3539 ;;		 -> EUSART1_DefaultOverrunErrorHandler(1), 
  3540 ;; Auto vars:     Size  Location     Type
  3541 ;;		None
  3542 ;; Return value:  Size  Location     Type
  3543 ;;                  1    wreg      void 
  3544 ;; Registers used:
  3545 ;;		wreg
  3546 ;; Tracked objects:
  3547 ;;		On entry : 0/0
  3548 ;;		On exit  : 0/0
  3549 ;;		Unchanged: 0/0
  3550 ;; Data sizes:     COMMON   BANK0   BANK1   BANK2   BANK3   BANK4   BANK5   BANK6
  3551 ;;      Params:         2       0       0       0       0       0       0       0
  3552 ;;      Locals:         0       0       0       0       0       0       0       0
  3553 ;;      Temps:          0       0       0       0       0       0       0       0
  3554 ;;      Totals:         2       0       0       0       0       0       0       0
  3555 ;;Total ram usage:        2 bytes
  3556 ;; Hardware stack levels used: 1
  3557 ;; Hardware stack levels required when called: 5
  3558 ;; This function calls:
  3559 ;;		Nothing
  3560 ;; This function is called by:
  3561 ;;		_EUSART1_Initialize
  3562 ;; This function uses a non-reentrant model
  3563 ;;
  3564                           
  3565                           
  3566                           ;psect for function _EUSART1_SetOverrunErrorHandler
  3567  034A                     _EUSART1_SetOverrunErrorHandler:
  3568  034A                     l1545:	
  3569                           ;incstack = 0
  3570                           ; Regs used in _EUSART1_SetOverrunErrorHandler: [wreg]
  3571                           
  3572                           
  3573                           ;mcc_generated_files/eusart1.c: 235:     EUSART1_OverrunErrorHandler = interruptHandler;
  3574  034A  0872               	movf	EUSART1_SetOverrunErrorHandler@interruptHandler+1,w
  3575  034B  0140               	movlb	0	; select bank0
  3576  034C  00D7               	movwf	_EUSART1_OverrunErrorHandler+1
  3577  034D  0871               	movf	EUSART1_SetOverrunErrorHandler@interruptHandler,w
  3578  034E  00D6               	movwf	_EUSART1_OverrunErrorHandler
  3579  034F                     l331:
  3580  034F  0008               	return
  3581  0350                     __end_of_EUSART1_SetOverrunErrorHandler:
  3582                           
  3583                           	psect	text22
  3584  0350                     __ptext22:	
  3585 ;; *************** function _EUSART1_SetFramingErrorHandler *****************
  3586 ;; Defined at:
  3587 ;;		line 230 in file "mcc_generated_files/eusart1.c"
  3588 ;; Parameters:    Size  Location     Type
  3589 ;;  interruptHan    2    1[COMMON] PTR FTN()void 
  3590 ;;		 -> EUSART1_DefaultFramingErrorHandler(1), 
  3591 ;; Auto vars:     Size  Location     Type
  3592 ;;		None
  3593 ;; Return value:  Size  Location     Type
  3594 ;;                  1    wreg      void 
  3595 ;; Registers used:
  3596 ;;		wreg
  3597 ;; Tracked objects:
  3598 ;;		On entry : 0/0
  3599 ;;		On exit  : 0/0
  3600 ;;		Unchanged: 0/0
  3601 ;; Data sizes:     COMMON   BANK0   BANK1   BANK2   BANK3   BANK4   BANK5   BANK6
  3602 ;;      Params:         2       0       0       0       0       0       0       0
  3603 ;;      Locals:         0       0       0       0       0       0       0       0
  3604 ;;      Temps:          0       0       0       0       0       0       0       0
  3605 ;;      Totals:         2       0       0       0       0       0       0       0
  3606 ;;Total ram usage:        2 bytes
  3607 ;; Hardware stack levels used: 1
  3608 ;; Hardware stack levels required when called: 5
  3609 ;; This function calls:
  3610 ;;		Nothing
  3611 ;; This function is called by:
  3612 ;;		_EUSART1_Initialize
  3613 ;; This function uses a non-reentrant model
  3614 ;;
  3615                           
  3616                           
  3617                           ;psect for function _EUSART1_SetFramingErrorHandler
  3618  0350                     _EUSART1_SetFramingErrorHandler:
  3619  0350                     l1543:	
  3620                           ;incstack = 0
  3621                           ; Regs used in _EUSART1_SetFramingErrorHandler: [wreg]
  3622                           
  3623                           
  3624                           ;mcc_generated_files/eusart1.c: 231:     EUSART1_FramingErrorHandler = interruptHandler;
  3625  0350  0872               	movf	EUSART1_SetFramingErrorHandler@interruptHandler+1,w
  3626  0351  0140               	movlb	0	; select bank0
  3627  0352  00D9               	movwf	_EUSART1_FramingErrorHandler+1
  3628  0353  0871               	movf	EUSART1_SetFramingErrorHandler@interruptHandler,w
  3629  0354  00D8               	movwf	_EUSART1_FramingErrorHandler
  3630  0355                     l328:
  3631  0355  0008               	return
  3632  0356                     __end_of_EUSART1_SetFramingErrorHandler:
  3633                           
  3634                           	psect	text23
  3635  0356                     __ptext23:	
  3636 ;; *************** function _EUSART1_SetErrorHandler *****************
  3637 ;; Defined at:
  3638 ;;		line 238 in file "mcc_generated_files/eusart1.c"
  3639 ;; Parameters:    Size  Location     Type
  3640 ;;  interruptHan    2    1[COMMON] PTR FTN()void 
  3641 ;;		 -> EUSART1_DefaultErrorHandler(1), 
  3642 ;; Auto vars:     Size  Location     Type
  3643 ;;		None
  3644 ;; Return value:  Size  Location     Type
  3645 ;;                  1    wreg      void 
  3646 ;; Registers used:
  3647 ;;		wreg
  3648 ;; Tracked objects:
  3649 ;;		On entry : 0/0
  3650 ;;		On exit  : 0/0
  3651 ;;		Unchanged: 0/0
  3652 ;; Data sizes:     COMMON   BANK0   BANK1   BANK2   BANK3   BANK4   BANK5   BANK6
  3653 ;;      Params:         2       0       0       0       0       0       0       0
  3654 ;;      Locals:         0       0       0       0       0       0       0       0
  3655 ;;      Temps:          0       0       0       0       0       0       0       0
  3656 ;;      Totals:         2       0       0       0       0       0       0       0
  3657 ;;Total ram usage:        2 bytes
  3658 ;; Hardware stack levels used: 1
  3659 ;; Hardware stack levels required when called: 5
  3660 ;; This function calls:
  3661 ;;		Nothing
  3662 ;; This function is called by:
  3663 ;;		_EUSART1_Initialize
  3664 ;; This function uses a non-reentrant model
  3665 ;;
  3666                           
  3667                           
  3668                           ;psect for function _EUSART1_SetErrorHandler
  3669  0356                     _EUSART1_SetErrorHandler:
  3670  0356                     l1547:	
  3671                           ;incstack = 0
  3672                           ; Regs used in _EUSART1_SetErrorHandler: [wreg]
  3673                           
  3674                           
  3675                           ;mcc_generated_files/eusart1.c: 239:     EUSART1_ErrorHandler = interruptHandler;
  3676  0356  0872               	movf	EUSART1_SetErrorHandler@interruptHandler+1,w
  3677  0357  0140               	movlb	0	; select bank0
  3678  0358  00D5               	movwf	_EUSART1_ErrorHandler+1
  3679  0359  0871               	movf	EUSART1_SetErrorHandler@interruptHandler,w
  3680  035A  00D4               	movwf	_EUSART1_ErrorHandler
  3681  035B                     l334:
  3682  035B  0008               	return
  3683  035C                     __end_of_EUSART1_SetErrorHandler:
  3684                           
  3685                           	psect	text24
  3686  00C2                     __ptext24:	
  3687 ;; *************** function _SPI1_Open *****************
  3688 ;; Defined at:
  3689 ;;		line 80 in file "mcc_generated_files/spi1.c"
  3690 ;; Parameters:    Size  Location     Type
  3691 ;;  spi1UniqueCo    1    wreg     enum E355
  3692 ;; Auto vars:     Size  Location     Type
  3693 ;;  spi1UniqueCo    1    4[COMMON] enum E355
  3694 ;; Return value:  Size  Location     Type
  3695 ;;                  1    wreg      _Bool 
  3696 ;; Registers used:
  3697 ;;		wreg, fsr0l, fsr0h, status,2, status,0, pclath
  3698 ;; Tracked objects:
  3699 ;;		On entry : 0/0
  3700 ;;		On exit  : 0/0
  3701 ;;		Unchanged: 0/0
  3702 ;; Data sizes:     COMMON   BANK0   BANK1   BANK2   BANK3   BANK4   BANK5   BANK6
  3703 ;;      Params:         0       0       0       0       0       0       0       0
  3704 ;;      Locals:         1       0       0       0       0       0       0       0
  3705 ;;      Temps:          3       0       0       0       0       0       0       0
  3706 ;;      Totals:         4       0       0       0       0       0       0       0
  3707 ;;Total ram usage:        4 bytes
  3708 ;; Hardware stack levels used: 1
  3709 ;; Hardware stack levels required when called: 5
  3710 ;; This function calls:
  3711 ;;		Nothing
  3712 ;; This function is called by:
  3713 ;;		_main
  3714 ;; This function uses a non-reentrant model
  3715 ;;
  3716                           
  3717                           
  3718                           ;psect for function _SPI1_Open
  3719  00C2                     _SPI1_Open:
  3720                           
  3721                           ;incstack = 0
  3722                           ; Regs used in _SPI1_Open: [wreg-fsr0h+status,2+status,0+pclath]
  3723                           ;SPI1_Open@spi1UniqueConfiguration stored from wreg
  3724  00C2  00F4               	movwf	SPI1_Open@spi1UniqueConfiguration
  3725  00C3                     l1755:
  3726                           
  3727                           ;mcc_generated_files/spi1.c: 80: _Bool SPI1_Open(spi1_modes_t spi1UniqueConfiguration);m
      +                          cc_generated_files/spi1.c: 81: {;mcc_generated_files/spi1.c: 82:     if(!SSP1CON1bits.SS
      +                          PEN)
  3728  00C3  0143               	movlb	3	; select bank3
  3729  00C4  1A90               	btfsc	16,5	;volatile
  3730  00C5  28C7               	goto	u651
  3731  00C6  28C8               	goto	u650
  3732  00C7                     u651:
  3733  00C7  2910               	goto	l389
  3734  00C8                     u650:
  3735  00C8                     l1757:
  3736                           
  3737                           ;mcc_generated_files/spi1.c: 83:     {;mcc_generated_files/spi1.c: 84:         SSP1STAT 
      +                          = spi1_configuration[spi1UniqueConfiguration].stat;
  3738  00C8  0874               	movf	SPI1_Open@spi1UniqueConfiguration,w
  3739  00C9  00F1               	movwf	??_SPI1_Open
  3740  00CA  01F2               	clrf	??_SPI1_Open+1
  3741  00CB  35F1               	lslf	??_SPI1_Open,f
  3742  00CC  0DF2               	rlf	??_SPI1_Open+1,f
  3743  00CD  35F1               	lslf	??_SPI1_Open,f
  3744  00CE  0DF2               	rlf	??_SPI1_Open+1,f
  3745  00CF  3067               	movlw	low ((_spi1_configuration+1)| (0+32768))
  3746  00D0  0771               	addwf	??_SPI1_Open,w
  3747  00D1  0084               	movwf	4
  3748  00D2  3083               	movlw	high ((_spi1_configuration+1)| (0+32768))
  3749  00D3  3D72               	addwfc	??_SPI1_Open+1,w
  3750  00D4  0085               	movwf	5
  3751  00D5  0800               	movf	0,w	;code access
  3752  00D6  008F               	movwf	15	;volatile
  3753                           
  3754                           ;mcc_generated_files/spi1.c: 85:         SSP1CON1 = spi1_configuration[spi1UniqueConfigu
      +                          ration].con1;
  3755  00D7  0874               	movf	SPI1_Open@spi1UniqueConfiguration,w
  3756  00D8  00F1               	movwf	??_SPI1_Open
  3757  00D9  01F2               	clrf	??_SPI1_Open+1
  3758  00DA  35F1               	lslf	??_SPI1_Open,f
  3759  00DB  0DF2               	rlf	??_SPI1_Open+1,f
  3760  00DC  35F1               	lslf	??_SPI1_Open,f
  3761  00DD  0DF2               	rlf	??_SPI1_Open+1,f
  3762  00DE  3066               	movlw	low (_spi1_configuration| (0+32768))
  3763  00DF  0771               	addwf	??_SPI1_Open,w
  3764  00E0  0084               	movwf	4
  3765  00E1  3083               	movlw	high (_spi1_configuration| (0+32768))
  3766  00E2  3D72               	addwfc	??_SPI1_Open+1,w
  3767  00E3  0085               	movwf	5
  3768  00E4  0800               	movf	0,w	;code access
  3769  00E5  0090               	movwf	16	;volatile
  3770  00E6                     l1759:
  3771                           
  3772                           ;mcc_generated_files/spi1.c: 86:         SSP1CON2 = 0x00;
  3773  00E6  0191               	clrf	17	;volatile
  3774  00E7                     l1761:
  3775                           
  3776                           ;mcc_generated_files/spi1.c: 87:         SSP1ADD = spi1_configuration[spi1UniqueConfigur
      +                          ation].add;
  3777  00E7  0874               	movf	SPI1_Open@spi1UniqueConfiguration,w
  3778  00E8  00F1               	movwf	??_SPI1_Open
  3779  00E9  01F2               	clrf	??_SPI1_Open+1
  3780  00EA  35F1               	lslf	??_SPI1_Open,f
  3781  00EB  0DF2               	rlf	??_SPI1_Open+1,f
  3782  00EC  35F1               	lslf	??_SPI1_Open,f
  3783  00ED  0DF2               	rlf	??_SPI1_Open+1,f
  3784  00EE  3068               	movlw	low ((_spi1_configuration+2)| (0+32768))
  3785  00EF  0771               	addwf	??_SPI1_Open,w
  3786  00F0  0084               	movwf	4
  3787  00F1  3083               	movlw	high ((_spi1_configuration+2)| (0+32768))
  3788  00F2  3D72               	addwfc	??_SPI1_Open+1,w
  3789  00F3  0085               	movwf	5
  3790  00F4  0800               	movf	0,w	;code access
  3791  00F5  008D               	movwf	13	;volatile
  3792  00F6                     l1763:
  3793                           
  3794                           ;mcc_generated_files/spi1.c: 88:         TRISCbits.TRISC6 = spi1_configuration[spi1Uniqu
      +                          eConfiguration].operation;
  3795  00F6  0874               	movf	SPI1_Open@spi1UniqueConfiguration,w
  3796  00F7  00F1               	movwf	??_SPI1_Open
  3797  00F8  01F2               	clrf	??_SPI1_Open+1
  3798  00F9  35F1               	lslf	??_SPI1_Open,f
  3799  00FA  0DF2               	rlf	??_SPI1_Open+1,f
  3800  00FB  35F1               	lslf	??_SPI1_Open,f
  3801  00FC  0DF2               	rlf	??_SPI1_Open+1,f
  3802  00FD  3069               	movlw	low ((_spi1_configuration+3)| (0+32768))
  3803  00FE  0771               	addwf	??_SPI1_Open,w
  3804  00FF  0084               	movwf	4
  3805  0100  3083               	movlw	high ((_spi1_configuration+3)| (0+32768))
  3806  0101  3D72               	addwfc	??_SPI1_Open+1,w
  3807  0102  0085               	movwf	5
  3808  0103  0800               	movf	0,w	;code access
  3809  0104  00F3               	movwf	??_SPI1_Open+2
  3810  0105  0EF3               	swapf	??_SPI1_Open+2,f
  3811  0106  0DF3               	rlf	??_SPI1_Open+2,f
  3812  0107  0DF3               	rlf	??_SPI1_Open+2,f
  3813  0108  0140               	movlb	0	; select bank0
  3814  0109  0814               	movf	20,w	;volatile
  3815  010A  0673               	xorwf	??_SPI1_Open+2,w
  3816  010B  39BF               	andlw	-65
  3817  010C  0673               	xorwf	??_SPI1_Open+2,w
  3818  010D  0094               	movwf	20	;volatile
  3819  010E                     l1765:
  3820                           
  3821                           ;mcc_generated_files/spi1.c: 89:         SSP1CON1bits.SSPEN = 1;
  3822  010E  0143               	movlb	3	; select bank3
  3823  010F  1690               	bsf	16,5	;volatile
  3824  0110                     l389:
  3825  0110  0008               	return
  3826  0111                     __end_of_SPI1_Open:
  3827                           
  3828                           	psect	intentry
  3829  0004                     __pintentry:	
  3830 ;; *************** function _INTERRUPT_InterruptManager *****************
  3831 ;; Defined at:
  3832 ;;		line 54 in file "mcc_generated_files/interrupt_manager.c"
  3833 ;; Parameters:    Size  Location     Type
  3834 ;;		None
  3835 ;; Auto vars:     Size  Location     Type
  3836 ;;		None
  3837 ;; Return value:  Size  Location     Type
  3838 ;;                  1    wreg      void 
  3839 ;; Registers used:
  3840 ;;		wreg, fsr1l, fsr1h, status,2, status,0, pclath, cstack
  3841 ;; Tracked objects:
  3842 ;;		On entry : 0/0
  3843 ;;		On exit  : 0/0
  3844 ;;		Unchanged: 0/0
  3845 ;; Data sizes:     COMMON   BANK0   BANK1   BANK2   BANK3   BANK4   BANK5   BANK6
  3846 ;;      Params:         0       0       0       0       0       0       0       0
  3847 ;;      Locals:         0       0       0       0       0       0       0       0
  3848 ;;      Temps:          0       0       0       0       0       0       0       0
  3849 ;;      Totals:         0       0       0       0       0       0       0       0
  3850 ;;Total ram usage:        0 bytes
  3851 ;; Hardware stack levels used: 1
  3852 ;; Hardware stack levels required when called: 4
  3853 ;; This function calls:
  3854 ;;		Absolute function
  3855 ;;		_EUSART1_Receive_ISR
  3856 ;;		_PIN_MANAGER_IOC
  3857 ;; This function is called by:
  3858 ;;		Interrupt level 1
  3859 ;; This function uses a non-reentrant model
  3860 ;;
  3861                           
  3862  0004                     _INTERRUPT_InterruptManager:
  3863                           
  3864                           ;incstack = 0
  3865  0004  147E               	bsf	int$flags,0	;set compiler interrupt flag (level 1)
  3866                           
  3867                           ; Regs used in _INTERRUPT_InterruptManager: [wreg+fsr1l+fsr1h+status,2+status,0+pclath+c
      +                          stack]
  3868  0005  3180               	pagesel	$
  3869  0006                     i1l1773:
  3870                           
  3871                           ;mcc_generated_files/interrupt_manager.c: 57:     if(PIE0bits.IOCIE == 1 && PIR0bits.IOC
      +                          IF == 1)
  3872  0006  014E               	movlb	14	; select bank14
  3873  0007  1E16               	btfss	22,4	;volatile
  3874  0008  280A               	goto	u68_21
  3875  0009  280B               	goto	u68_20
  3876  000A                     u68_21:
  3877  000A  2812               	goto	i1l1779
  3878  000B                     u68_20:
  3879  000B                     i1l1775:
  3880  000B  1E0C               	btfss	12,4	;volatile
  3881  000C  280E               	goto	u69_21
  3882  000D  280F               	goto	u69_20
  3883  000E                     u69_21:
  3884  000E  2812               	goto	i1l1779
  3885  000F                     u69_20:
  3886  000F                     i1l1777:
  3887                           
  3888                           ;mcc_generated_files/interrupt_manager.c: 58:     {;mcc_generated_files/interrupt_manage
      +                          r.c: 59:         PIN_MANAGER_IOC();
  3889  000F  3183  2321  3180   	fcall	_PIN_MANAGER_IOC
  3890  0012                     i1l1779:
  3891                           
  3892                           ;mcc_generated_files/interrupt_manager.c: 61:     if(INTCONbits.PEIE == 1)
  3893  0012  1F0B               	btfss	11,6	;volatile
  3894  0013  2815               	goto	u70_21
  3895  0014  2816               	goto	u70_20
  3896  0015                     u70_21:
  3897  0015  2825               	goto	i1l34
  3898  0016                     u70_20:
  3899  0016                     i1l1781:
  3900                           
  3901                           ;mcc_generated_files/interrupt_manager.c: 62:     {;mcc_generated_files/interrupt_manage
      +                          r.c: 63:         if(PIE1bits.RC1IE == 1 && PIR1bits.RC1IF == 1)
  3902  0016  014E               	movlb	14	; select bank14
  3903  0017  1E17               	btfss	23,4	;volatile
  3904  0018  281A               	goto	u71_21
  3905  0019  281B               	goto	u71_20
  3906  001A                     u71_21:
  3907  001A  2825               	goto	i1l34
  3908  001B                     u71_20:
  3909  001B                     i1l1783:
  3910  001B  1E0D               	btfss	13,4	;volatile
  3911  001C  281E               	goto	u72_21
  3912  001D  281F               	goto	u72_20
  3913  001E                     u72_21:
  3914  001E  2825               	goto	i1l34
  3915  001F                     u72_20:
  3916  001F                     i1l1785:
  3917                           
  3918                           ;mcc_generated_files/interrupt_manager.c: 64:         {;mcc_generated_files/interrupt_ma
      +                          nager.c: 65:             EUSART1_RxDefaultInterruptHandler();
  3919  001F  0140               	movlb	0	; select bank0
  3920  0020  085D               	movf	_EUSART1_RxDefaultInterruptHandler+1,w
  3921  0021  008A               	movwf	10
  3922  0022  085C               	movf	_EUSART1_RxDefaultInterruptHandler,w
  3923  0023  000A               	callw
  3924  0024  3180               	pagesel	$
  3925  0025                     i1l34:
  3926  0025  107E               	bcf	int$flags,0	;clear compiler interrupt flag (level 1)
  3927  0026  0009               	retfie
  3928  0027                     __end_of_INTERRUPT_InterruptManager:
  3929                           
  3930                           	psect	text26
  3931  0321                     __ptext26:	
  3932 ;; *************** function _PIN_MANAGER_IOC *****************
  3933 ;; Defined at:
  3934 ;;		line 139 in file "mcc_generated_files/pin_manager.c"
  3935 ;; Parameters:    Size  Location     Type
  3936 ;;		None
  3937 ;; Auto vars:     Size  Location     Type
  3938 ;;		None
  3939 ;; Return value:  Size  Location     Type
  3940 ;;                  1    wreg      void 
  3941 ;; Registers used:
  3942 ;;		wreg, status,2, status,0, pclath, cstack
  3943 ;; Tracked objects:
  3944 ;;		On entry : 0/0
  3945 ;;		On exit  : 0/0
  3946 ;;		Unchanged: 0/0
  3947 ;; Data sizes:     COMMON   BANK0   BANK1   BANK2   BANK3   BANK4   BANK5   BANK6
  3948 ;;      Params:         0       0       0       0       0       0       0       0
  3949 ;;      Locals:         0       0       0       0       0       0       0       0
  3950 ;;      Temps:          0       0       0       0       0       0       0       0
  3951 ;;      Totals:         0       0       0       0       0       0       0       0
  3952 ;;Total ram usage:        0 bytes
  3953 ;; Hardware stack levels used: 1
  3954 ;; Hardware stack levels required when called: 2
  3955 ;; This function calls:
  3956 ;;		_IOCCF2_ISR
  3957 ;; This function is called by:
  3958 ;;		_INTERRUPT_InterruptManager
  3959 ;; This function uses a non-reentrant model
  3960 ;;
  3961                           
  3962                           
  3963                           ;psect for function _PIN_MANAGER_IOC
  3964  0321                     _PIN_MANAGER_IOC:
  3965  0321                     i1l1679:	
  3966                           ;incstack = 0
  3967                           ; Regs used in _PIN_MANAGER_IOC: [wreg+status,2+status,0+pclath+cstack]
  3968                           
  3969                           
  3970                           ;mcc_generated_files/pin_manager.c: 142:     if(IOCCFbits.IOCCF2 == 1)
  3971  0321  017E               	movlb	62	; select bank62
  3972  0322  1D55               	btfss	85,2	;volatile
  3973  0323  2B25               	goto	u52_21
  3974  0324  2B26               	goto	u52_20
  3975  0325                     u52_21:
  3976  0325  2B29               	goto	i1l160
  3977  0326                     u52_20:
  3978  0326                     i1l1681:
  3979                           
  3980                           ;mcc_generated_files/pin_manager.c: 143:     {;mcc_generated_files/pin_manager.c: 144:  
      +                                 IOCCF2_ISR();
  3981  0326  3182  22F5  3183   	fcall	_IOCCF2_ISR
  3982  0329                     i1l160:
  3983  0329  0008               	return
  3984  032A                     __end_of_PIN_MANAGER_IOC:
  3985                           
  3986                           	psect	text27
  3987  02F5                     __ptext27:	
  3988 ;; *************** function _IOCCF2_ISR *****************
  3989 ;; Defined at:
  3990 ;;		line 151 in file "mcc_generated_files/pin_manager.c"
  3991 ;; Parameters:    Size  Location     Type
  3992 ;;		None
  3993 ;; Auto vars:     Size  Location     Type
  3994 ;;		None
  3995 ;; Return value:  Size  Location     Type
  3996 ;;                  1    wreg      void 
  3997 ;; Registers used:
  3998 ;;		wreg, status,2, status,0, pclath, cstack
  3999 ;; Tracked objects:
  4000 ;;		On entry : 0/0
  4001 ;;		On exit  : 0/0
  4002 ;;		Unchanged: 0/0
  4003 ;; Data sizes:     COMMON   BANK0   BANK1   BANK2   BANK3   BANK4   BANK5   BANK6
  4004 ;;      Params:         0       0       0       0       0       0       0       0
  4005 ;;      Locals:         0       0       0       0       0       0       0       0
  4006 ;;      Temps:          0       0       0       0       0       0       0       0
  4007 ;;      Totals:         0       0       0       0       0       0       0       0
  4008 ;;Total ram usage:        0 bytes
  4009 ;; Hardware stack levels used: 1
  4010 ;; Hardware stack levels required when called: 1
  4011 ;; This function calls:
  4012 ;;		Absolute function
  4013 ;;		_IOCCF2_DefaultInterruptHandler
  4014 ;; This function is called by:
  4015 ;;		_PIN_MANAGER_IOC
  4016 ;; This function uses a non-reentrant model
  4017 ;;
  4018                           
  4019                           
  4020                           ;psect for function _IOCCF2_ISR
  4021  02F5                     _IOCCF2_ISR:
  4022  02F5                     i1l1657:	
  4023                           ;incstack = 0
  4024                           ; Regs used in _IOCCF2_ISR: [wreg+status,2+status,0+pclath+cstack]
  4025                           
  4026                           
  4027                           ;mcc_generated_files/pin_manager.c: 156:     if(IOCCF2_InterruptHandler)
  4028  02F5  0140               	movlb	0	; select bank0
  4029  02F6  085A               	movf	_IOCCF2_InterruptHandler,w
  4030  02F7  045B               	iorwf	_IOCCF2_InterruptHandler+1,w
  4031  02F8  1903               	btfsc	3,2
  4032  02F9  2AFB               	goto	u51_21
  4033  02FA  2AFC               	goto	u51_20
  4034  02FB                     u51_21:
  4035  02FB  2B01               	goto	i1l1661
  4036  02FC                     u51_20:
  4037  02FC                     i1l1659:
  4038                           
  4039                           ;mcc_generated_files/pin_manager.c: 157:     {;mcc_generated_files/pin_manager.c: 158:  
      +                                 IOCCF2_InterruptHandler();
  4040  02FC  085B               	movf	_IOCCF2_InterruptHandler+1,w
  4041  02FD  008A               	movwf	10
  4042  02FE  085A               	movf	_IOCCF2_InterruptHandler,w
  4043  02FF  000A               	callw
  4044  0300  3182               	pagesel	$
  4045  0301                     i1l1661:
  4046                           
  4047                           ;mcc_generated_files/pin_manager.c: 160:     IOCCFbits.IOCCF2 = 0;
  4048  0301  017E               	movlb	62	; select bank62
  4049  0302  1155               	bcf	85,2	;volatile
  4050  0303                     i1l164:
  4051  0303  0008               	return
  4052  0304                     __end_of_IOCCF2_ISR:
  4053                           
  4054                           	psect	text28
  4055  0379                     __ptext28:	
  4056 ;; *************** function _IOCCF2_DefaultInterruptHandler *****************
  4057 ;; Defined at:
  4058 ;;		line 173 in file "mcc_generated_files/pin_manager.c"
  4059 ;; Parameters:    Size  Location     Type
  4060 ;;		None
  4061 ;; Auto vars:     Size  Location     Type
  4062 ;;		None
  4063 ;; Return value:  Size  Location     Type
  4064 ;;                  1    wreg      void 
  4065 ;; Registers used:
  4066 ;;		None
  4067 ;; Tracked objects:
  4068 ;;		On entry : 0/0
  4069 ;;		On exit  : 0/0
  4070 ;;		Unchanged: 0/0
  4071 ;; Data sizes:     COMMON   BANK0   BANK1   BANK2   BANK3   BANK4   BANK5   BANK6
  4072 ;;      Params:         0       0       0       0       0       0       0       0
  4073 ;;      Locals:         0       0       0       0       0       0       0       0
  4074 ;;      Temps:          0       0       0       0       0       0       0       0
  4075 ;;      Totals:         0       0       0       0       0       0       0       0
  4076 ;;Total ram usage:        0 bytes
  4077 ;; Hardware stack levels used: 1
  4078 ;; This function calls:
  4079 ;;		Nothing
  4080 ;; This function is called by:
  4081 ;;		_PIN_MANAGER_Initialize
  4082 ;;		_IOCCF2_ISR
  4083 ;; This function uses a non-reentrant model
  4084 ;;
  4085                           
  4086                           
  4087                           ;psect for function _IOCCF2_DefaultInterruptHandler
  4088  0379                     _IOCCF2_DefaultInterruptHandler:
  4089  0379                     i1l1539:	
  4090                           ;incstack = 0
  4091                           ; Regs used in _IOCCF2_DefaultInterruptHandler: []
  4092                           
  4093                           
  4094                           ;mcc_generated_files/pin_manager.c: 176:     FLAGS.bits.BUTTON_PUSHED = 1;
  4095  0379  0140               	movlb	0	; select bank0
  4096  037A  153E               	bsf	_FLAGS,2
  4097  037B                     i1l170:
  4098  037B  0008               	return
  4099  037C                     __end_of_IOCCF2_DefaultInterruptHandler:
  4100                           
  4101                           	psect	text29
  4102  0199                     __ptext29:	
  4103 ;; *************** function _EUSART1_Receive_ISR *****************
  4104 ;; Defined at:
  4105 ;;		line 173 in file "mcc_generated_files/eusart1.c"
  4106 ;; Parameters:    Size  Location     Type
  4107 ;;		None
  4108 ;; Auto vars:     Size  Location     Type
  4109 ;;		None
  4110 ;; Return value:  Size  Location     Type
  4111 ;;                  1    wreg      void 
  4112 ;; Registers used:
  4113 ;;		wreg, fsr1l, fsr1h, status,2, status,0, pclath, cstack
  4114 ;; Tracked objects:
  4115 ;;		On entry : 0/0
  4116 ;;		On exit  : 0/0
  4117 ;;		Unchanged: 0/0
  4118 ;; Data sizes:     COMMON   BANK0   BANK1   BANK2   BANK3   BANK4   BANK5   BANK6
  4119 ;;      Params:         0       0       0       0       0       0       0       0
  4120 ;;      Locals:         0       0       0       0       0       0       0       0
  4121 ;;      Temps:          0       0       0       0       0       0       0       0
  4122 ;;      Totals:         0       0       0       0       0       0       0       0
  4123 ;;Total ram usage:        0 bytes
  4124 ;; Hardware stack levels used: 1
  4125 ;; Hardware stack levels required when called: 3
  4126 ;; This function calls:
  4127 ;;		Absolute function
  4128 ;;		_EUSART1_DefaultErrorHandler
  4129 ;;		_EUSART1_DefaultFramingErrorHandler
  4130 ;;		_EUSART1_DefaultOverrunErrorHandler
  4131 ;;		_EUSART1_RxDataHandler
  4132 ;; This function is called by:
  4133 ;;		_EUSART1_Initialize
  4134 ;;		_INTERRUPT_InterruptManager
  4135 ;; This function uses a non-reentrant model
  4136 ;;
  4137                           
  4138                           
  4139                           ;psect for function _EUSART1_Receive_ISR
  4140  0199                     _EUSART1_Receive_ISR:
  4141  0199                     i1l1729:	
  4142                           ;incstack = 0
  4143                           ; Regs used in _EUSART1_Receive_ISR: [wreg+fsr1l+fsr1h+status,2+status,0+pclath+cstack]
  4144                           
  4145                           
  4146                           ;mcc_generated_files/eusart1.c: 175:     eusart1RxStatusBuffer[eusart1RxHead].status = 0
      +                          ;
  4147  0199  087C               	movf	_eusart1RxHead,w	;volatile
  4148  019A  3E20               	addlw	(low (_eusart1RxStatusBuffer| 0))& (0+255)
  4149  019B  0086               	movwf	6
  4150  019C  0187               	clrf	7
  4151  019D  0181               	clrf	1
  4152  019E                     i1l1731:
  4153                           
  4154                           ;mcc_generated_files/eusart1.c: 177:     if (RC1STAbits.FERR) {
  4155  019E  0142               	movlb	2	; select bank2
  4156  019F  1D1D               	btfss	29,2	;volatile
  4157  01A0  29A2               	goto	u60_21
  4158  01A1  29A3               	goto	u60_20
  4159  01A2                     u60_21:
  4160  01A2  29AE               	goto	i1l1737
  4161  01A3                     u60_20:
  4162  01A3                     i1l1733:
  4163                           
  4164                           ;mcc_generated_files/eusart1.c: 178:         eusart1RxStatusBuffer[eusart1RxHead].ferr =
      +                           1;
  4165  01A3  087C               	movf	_eusart1RxHead,w	;volatile
  4166  01A4  3E20               	addlw	(low (_eusart1RxStatusBuffer| 0))& (0+255)
  4167  01A5  0086               	movwf	6
  4168  01A6  0187               	clrf	7
  4169  01A7  1481               	bsf	1,1
  4170  01A8                     i1l1735:
  4171                           
  4172                           ;mcc_generated_files/eusart1.c: 179:         EUSART1_FramingErrorHandler();
  4173  01A8  0140               	movlb	0	; select bank0
  4174  01A9  0859               	movf	_EUSART1_FramingErrorHandler+1,w
  4175  01AA  008A               	movwf	10
  4176  01AB  0858               	movf	_EUSART1_FramingErrorHandler,w
  4177  01AC  000A               	callw
  4178  01AD  3181               	pagesel	$
  4179  01AE                     i1l1737:
  4180                           
  4181                           ;mcc_generated_files/eusart1.c: 182:     if (RC1STAbits.OERR) {
  4182  01AE  0142               	movlb	2	; select bank2
  4183  01AF  1C9D               	btfss	29,1	;volatile
  4184  01B0  29B2               	goto	u61_21
  4185  01B1  29B3               	goto	u61_20
  4186  01B2                     u61_21:
  4187  01B2  29BE               	goto	i1l1743
  4188  01B3                     u61_20:
  4189  01B3                     i1l1739:
  4190                           
  4191                           ;mcc_generated_files/eusart1.c: 183:         eusart1RxStatusBuffer[eusart1RxHead].oerr =
      +                           1;
  4192  01B3  087C               	movf	_eusart1RxHead,w	;volatile
  4193  01B4  3E20               	addlw	(low (_eusart1RxStatusBuffer| 0))& (0+255)
  4194  01B5  0086               	movwf	6
  4195  01B6  0187               	clrf	7
  4196  01B7  1501               	bsf	1,2
  4197  01B8                     i1l1741:
  4198                           
  4199                           ;mcc_generated_files/eusart1.c: 184:         EUSART1_OverrunErrorHandler();
  4200  01B8  0140               	movlb	0	; select bank0
  4201  01B9  0857               	movf	_EUSART1_OverrunErrorHandler+1,w
  4202  01BA  008A               	movwf	10
  4203  01BB  0856               	movf	_EUSART1_OverrunErrorHandler,w
  4204  01BC  000A               	callw
  4205  01BD  3181               	pagesel	$
  4206  01BE                     i1l1743:
  4207                           
  4208                           ;mcc_generated_files/eusart1.c: 187:     if (eusart1RxStatusBuffer[eusart1RxHead].status
      +                          ) {
  4209  01BE  087C               	movf	_eusart1RxHead,w	;volatile
  4210  01BF  3E20               	addlw	(low (_eusart1RxStatusBuffer| 0))& (0+255)
  4211  01C0  0086               	movwf	6
  4212  01C1  0187               	clrf	7
  4213  01C2  0801               	movf	1,w
  4214  01C3  1903               	btfsc	3,2
  4215  01C4  29C6               	goto	u62_21
  4216  01C5  29C7               	goto	u62_20
  4217  01C6                     u62_21:
  4218  01C6  29CE               	goto	i1l1747
  4219  01C7                     u62_20:
  4220  01C7                     i1l1745:
  4221                           
  4222                           ;mcc_generated_files/eusart1.c: 188:         EUSART1_ErrorHandler();
  4223  01C7  0140               	movlb	0	; select bank0
  4224  01C8  0855               	movf	_EUSART1_ErrorHandler+1,w
  4225  01C9  008A               	movwf	10
  4226  01CA  0854               	movf	_EUSART1_ErrorHandler,w
  4227  01CB  000A               	callw
  4228  01CC  3181               	pagesel	$
  4229                           
  4230                           ;mcc_generated_files/eusart1.c: 189:     } else {
  4231  01CD  29D1               	goto	i1l306
  4232  01CE                     i1l1747:
  4233                           
  4234                           ;mcc_generated_files/eusart1.c: 190:         EUSART1_RxDataHandler();
  4235  01CE  3183  2372  3181   	fcall	_EUSART1_RxDataHandler
  4236  01D1                     i1l306:
  4237  01D1  0008               	return
  4238  01D2                     __end_of_EUSART1_Receive_ISR:
  4239                           
  4240                           	psect	text30
  4241  036A                     __ptext30:	
  4242 ;; *************** function _EUSART1_DefaultOverrunErrorHandler *****************
  4243 ;; Defined at:
  4244 ;;		line 218 in file "mcc_generated_files/eusart1.c"
  4245 ;; Parameters:    Size  Location     Type
  4246 ;;		None
  4247 ;; Auto vars:     Size  Location     Type
  4248 ;;		None
  4249 ;; Return value:  Size  Location     Type
  4250 ;;                  1    wreg      void 
  4251 ;; Registers used:
  4252 ;;		None
  4253 ;; Tracked objects:
  4254 ;;		On entry : 0/0
  4255 ;;		On exit  : 0/0
  4256 ;;		Unchanged: 0/0
  4257 ;; Data sizes:     COMMON   BANK0   BANK1   BANK2   BANK3   BANK4   BANK5   BANK6
  4258 ;;      Params:         0       0       0       0       0       0       0       0
  4259 ;;      Locals:         0       0       0       0       0       0       0       0
  4260 ;;      Temps:          0       0       0       0       0       0       0       0
  4261 ;;      Totals:         0       0       0       0       0       0       0       0
  4262 ;;Total ram usage:        0 bytes
  4263 ;; Hardware stack levels used: 1
  4264 ;; This function calls:
  4265 ;;		Nothing
  4266 ;; This function is called by:
  4267 ;;		_EUSART1_Initialize
  4268 ;;		_EUSART1_Receive_ISR
  4269 ;; This function uses a non-reentrant model
  4270 ;;
  4271                           
  4272                           
  4273                           ;psect for function _EUSART1_DefaultOverrunErrorHandler
  4274  036A                     _EUSART1_DefaultOverrunErrorHandler:
  4275  036A                     i1l1671:	
  4276                           ;incstack = 0
  4277                           ; Regs used in _EUSART1_DefaultOverrunErrorHandler: []
  4278                           
  4279                           
  4280                           ;mcc_generated_files/eusart1.c: 221:     RC1STAbits.CREN = 0;
  4281  036A  0142               	movlb	2	; select bank2
  4282  036B  121D               	bcf	29,4	;volatile
  4283                           
  4284                           ;mcc_generated_files/eusart1.c: 222:     RC1STAbits.CREN = 1;
  4285  036C  161D               	bsf	29,4	;volatile
  4286  036D                     i1l322:
  4287  036D  0008               	return
  4288  036E                     __end_of_EUSART1_DefaultOverrunErrorHandler:
  4289                           
  4290                           	psect	text31
  4291  037E                     __ptext31:	
  4292 ;; *************** function _EUSART1_DefaultFramingErrorHandler *****************
  4293 ;; Defined at:
  4294 ;;		line 215 in file "mcc_generated_files/eusart1.c"
  4295 ;; Parameters:    Size  Location     Type
  4296 ;;		None
  4297 ;; Auto vars:     Size  Location     Type
  4298 ;;		None
  4299 ;; Return value:  Size  Location     Type
  4300 ;;                  1    wreg      void 
  4301 ;; Registers used:
  4302 ;;		None
  4303 ;; Tracked objects:
  4304 ;;		On entry : 0/0
  4305 ;;		On exit  : 0/0
  4306 ;;		Unchanged: 0/0
  4307 ;; Data sizes:     COMMON   BANK0   BANK1   BANK2   BANK3   BANK4   BANK5   BANK6
  4308 ;;      Params:         0       0       0       0       0       0       0       0
  4309 ;;      Locals:         0       0       0       0       0       0       0       0
  4310 ;;      Temps:          0       0       0       0       0       0       0       0
  4311 ;;      Totals:         0       0       0       0       0       0       0       0
  4312 ;;Total ram usage:        0 bytes
  4313 ;; Hardware stack levels used: 1
  4314 ;; This function calls:
  4315 ;;		Nothing
  4316 ;; This function is called by:
  4317 ;;		_EUSART1_Initialize
  4318 ;;		_EUSART1_Receive_ISR
  4319 ;; This function uses a non-reentrant model
  4320 ;;
  4321                           
  4322                           
  4323                           ;psect for function _EUSART1_DefaultFramingErrorHandler
  4324  037E                     _EUSART1_DefaultFramingErrorHandler:
  4325  037E                     i1l319:	
  4326                           ;incstack = 0
  4327                           ; Regs used in _EUSART1_DefaultFramingErrorHandler: []
  4328                           
  4329  037E  0008               	return
  4330  037F                     __end_of_EUSART1_DefaultFramingErrorHandler:
  4331                           
  4332                           	psect	text32
  4333  036E                     __ptext32:	
  4334 ;; *************** function _EUSART1_DefaultErrorHandler *****************
  4335 ;; Defined at:
  4336 ;;		line 226 in file "mcc_generated_files/eusart1.c"
  4337 ;; Parameters:    Size  Location     Type
  4338 ;;		None
  4339 ;; Auto vars:     Size  Location     Type
  4340 ;;		None
  4341 ;; Return value:  Size  Location     Type
  4342 ;;                  1    wreg      void 
  4343 ;; Registers used:
  4344 ;;		wreg, status,2, status,0, pclath, cstack
  4345 ;; Tracked objects:
  4346 ;;		On entry : 0/0
  4347 ;;		On exit  : 0/0
  4348 ;;		Unchanged: 0/0
  4349 ;; Data sizes:     COMMON   BANK0   BANK1   BANK2   BANK3   BANK4   BANK5   BANK6
  4350 ;;      Params:         0       0       0       0       0       0       0       0
  4351 ;;      Locals:         0       0       0       0       0       0       0       0
  4352 ;;      Temps:          0       0       0       0       0       0       0       0
  4353 ;;      Totals:         0       0       0       0       0       0       0       0
  4354 ;;Total ram usage:        0 bytes
  4355 ;; Hardware stack levels used: 1
  4356 ;; Hardware stack levels required when called: 2
  4357 ;; This function calls:
  4358 ;;		_EUSART1_RxDataHandler
  4359 ;; This function is called by:
  4360 ;;		_EUSART1_Initialize
  4361 ;;		_EUSART1_Receive_ISR
  4362 ;; This function uses a non-reentrant model
  4363 ;;
  4364                           
  4365                           
  4366                           ;psect for function _EUSART1_DefaultErrorHandler
  4367  036E                     _EUSART1_DefaultErrorHandler:
  4368  036E                     i1l1673:	
  4369                           ;incstack = 0
  4370                           ; Regs used in _EUSART1_DefaultErrorHandler: [wreg+status,2+status,0+pclath+cstack]
  4371                           
  4372                           
  4373                           ;mcc_generated_files/eusart1.c: 227:     EUSART1_RxDataHandler();
  4374  036E  3183  2372  3183   	fcall	_EUSART1_RxDataHandler
  4375  0371                     i1l325:
  4376  0371  0008               	return
  4377  0372                     __end_of_EUSART1_DefaultErrorHandler:
  4378                           
  4379                           	psect	text33
  4380  0372                     __ptext33:	
  4381 ;; *************** function _EUSART1_RxDataHandler *****************
  4382 ;; Defined at:
  4383 ;;		line 195 in file "mcc_generated_files/eusart1.c"
  4384 ;; Parameters:    Size  Location     Type
  4385 ;;		None
  4386 ;; Auto vars:     Size  Location     Type
  4387 ;;		None
  4388 ;; Return value:  Size  Location     Type
  4389 ;;                  1    wreg      void 
  4390 ;; Registers used:
  4391 ;;		wreg, status,2, status,0, pclath, cstack
  4392 ;; Tracked objects:
  4393 ;;		On entry : 0/0
  4394 ;;		On exit  : 0/0
  4395 ;;		Unchanged: 0/0
  4396 ;; Data sizes:     COMMON   BANK0   BANK1   BANK2   BANK3   BANK4   BANK5   BANK6
  4397 ;;      Params:         0       0       0       0       0       0       0       0
  4398 ;;      Locals:         0       0       0       0       0       0       0       0
  4399 ;;      Temps:          0       0       0       0       0       0       0       0
  4400 ;;      Totals:         0       0       0       0       0       0       0       0
  4401 ;;Total ram usage:        0 bytes
  4402 ;; Hardware stack levels used: 1
  4403 ;; Hardware stack levels required when called: 1
  4404 ;; This function calls:
  4405 ;;		_EUSART1_RxCustomHandler
  4406 ;; This function is called by:
  4407 ;;		_EUSART1_Receive_ISR
  4408 ;;		_EUSART1_DefaultErrorHandler
  4409 ;; This function uses a non-reentrant model
  4410 ;;
  4411                           
  4412                           
  4413                           ;psect for function _EUSART1_RxDataHandler
  4414  0372                     _EUSART1_RxDataHandler:
  4415  0372                     i1l1549:	
  4416                           ;incstack = 0
  4417                           ; Regs used in _EUSART1_RxDataHandler: [wreg+status,2+status,0+pclath+cstack]
  4418                           
  4419                           
  4420                           ;mcc_generated_files/eusart1.c: 197:     EUSART1_RxCustomHandler();
  4421  0372  3183  232A  3183   	fcall	_EUSART1_RxCustomHandler
  4422  0375                     i1l309:
  4423  0375  0008               	return
  4424  0376                     __end_of_EUSART1_RxDataHandler:
  4425                           
  4426                           	psect	text34
  4427  032A                     __ptext34:	
  4428 ;; *************** function _EUSART1_RxCustomHandler *****************
  4429 ;; Defined at:
  4430 ;;		line 200 in file "mcc_generated_files/eusart1.c"
  4431 ;; Parameters:    Size  Location     Type
  4432 ;;		None
  4433 ;; Auto vars:     Size  Location     Type
  4434 ;;		None
  4435 ;; Return value:  Size  Location     Type
  4436 ;;                  1    wreg      void 
  4437 ;; Registers used:
  4438 ;;		wreg
  4439 ;; Tracked objects:
  4440 ;;		On entry : 0/0
  4441 ;;		On exit  : 0/0
  4442 ;;		Unchanged: 0/0
  4443 ;; Data sizes:     COMMON   BANK0   BANK1   BANK2   BANK3   BANK4   BANK5   BANK6
  4444 ;;      Params:         0       0       0       0       0       0       0       0
  4445 ;;      Locals:         0       0       0       0       0       0       0       0
  4446 ;;      Temps:          1       0       0       0       0       0       0       0
  4447 ;;      Totals:         1       0       0       0       0       0       0       0
  4448 ;;Total ram usage:        1 bytes
  4449 ;; Hardware stack levels used: 1
  4450 ;; This function calls:
  4451 ;;		Nothing
  4452 ;; This function is called by:
  4453 ;;		_EUSART1_RxDataHandler
  4454 ;; This function uses a non-reentrant model
  4455 ;;
  4456                           
  4457                           
  4458                           ;psect for function _EUSART1_RxCustomHandler
  4459  032A                     _EUSART1_RxCustomHandler:
  4460  032A                     i1l1501:	
  4461                           ;incstack = 0
  4462                           ; Regs used in _EUSART1_RxCustomHandler: [wreg]
  4463                           
  4464                           
  4465                           ;mcc_generated_files/eusart1.c: 201:     serialRead = RC1REG;
  4466  032A  0142               	movlb	2	; select bank2
  4467  032B  0819               	movf	25,w	;volatile
  4468  032C  00F0               	movwf	??_EUSART1_RxCustomHandler
  4469  032D  0870               	movf	??_EUSART1_RxCustomHandler,w
  4470  032E  0140               	movlb	0	; select bank0
  4471  032F  00BF               	movwf	_serialRead
  4472  0330                     i1l1503:
  4473                           
  4474                           ;mcc_generated_files/eusart1.c: 202:     FLAGS.bits.UART_RECEIVED = 1;
  4475  0330  163E               	bsf	_FLAGS,4
  4476  0331                     i1l312:
  4477  0331  0008               	return
  4478  0332                     __end_of_EUSART1_RxCustomHandler:
  4479  007E                     btemp	set	126	;btemp
  4480  007E                     int$flags	set	126
  4481  007E                     wtemp0	set	126
  4482                           
  4483                           	psect	config
  4484                           
  4485                           ;Config register CONFIG1 @ 0x8007
  4486                           ;	External Oscillator Mode Selection bits
  4487                           ;	FEXTOSC = OFF, Oscillator not enabled
  4488                           ;	Power-up Default Value for COSC bits
  4489                           ;	RSTOSC = HFINTOSC_1MHZ, HFINTOSC (1 MHz)
  4490                           ;	Clock Out Enable bit
  4491                           ;	CLKOUTEN = OFF, CLKOUT function is disabled; I/O function on RA4
  4492                           ;	VDD Range Analog Calibration Selection bit
  4493                           ;	VDDAR = HI, Internal analog systems are calibrated for operation between VDD = 2.3V - 
      +                          5.5V
  4494  8007                     	org	32775
  4495  8007  3FED               	dw	16365
  4496                           
  4497                           ;Config register CONFIG2 @ 0x8008
  4498                           ;	Master Clear Enable bit
  4499                           ;	MCLRE = INTMCLR, If LVP = 0, MCLR pin is port defined function; If LVP = 1, RA3 pin fu
      +                          nction is MCLR
  4500                           ;	Power-up Timer Selection bits
  4501                           ;	PWRTS = PWRT_OFF, PWRT is disabled
  4502                           ;	WDT Operating Mode bits
  4503                           ;	WDTE = OFF, WDT disabled; SEN is ignored
  4504                           ;	Brown-out Reset Enable bits
  4505                           ;	BOREN = ON, Brown-out Reset Enabled, SBOREN bit is ignored
  4506                           ;	Brown-out Reset Voltage Selection bit
  4507                           ;	BORV = LO, Brown-out Reset Voltage (VBOR) set to 1.9V
  4508                           ;	PPSLOCKED One-Way Set Enable bit
  4509                           ;	PPS1WAY = OFF, The PPSLOCKED bit can be set and cleared repeatedly by software (subjec
      +                          t to unlock sequence)
  4510                           ;	Stack Overflow/Underflow Reset Enable bit
  4511                           ;	STVREN = ON, Stack Overflow or Underflow will cause a reset
  4512  8008                     	org	32776
  4513  8008  37E6               	dw	14310
  4514                           
  4515                           ;Config register CONFIG4 @ 0x800A
  4516                           ;	Boot Block Size Selection bits
  4517                           ;	BBSIZE = BB512, 512 words boot block size
  4518                           ;	Boot Block Enable bit
  4519                           ;	BBEN = OFF, Boot Block is disabled
  4520                           ;	SAF Enable bit
  4521                           ;	SAFEN = OFF, SAF is disabled
  4522                           ;	Application Block Write Protection bit
  4523                           ;	WRTAPP = OFF, Application Block is not write-protected
  4524                           ;	Boot Block Write Protection bit
  4525                           ;	WRTB = OFF, Boot Block is not write-protected
  4526                           ;	Configuration Registers Write Protection bit
  4527                           ;	WRTC = OFF, Configuration Registers are not write-protected
  4528                           ;	Storage Area Flash (SAF) Write Protection bit
  4529                           ;	WRTSAF = OFF, SAF is not write-protected
  4530                           ;	Low Voltage Programming Enable bit
  4531                           ;	LVP = OFF, High Voltage on MCLR/Vpp must be used for programming
  4532  800A                     	org	32778
  4533  800A  1FFF               	dw	8191
  4534                           
  4535                           ;Config register CONFIG5 @ 0x800B
  4536                           ;	User Program Flash Memory Code Protection bit
  4537                           ;	CP = OFF, User Program Flash Memory code protection is disabled
  4538  800B                     	org	32779
  4539  800B  3FFF               	dw	16383

Data Sizes:
    Strings     9
    Constant    4
    Data        2
    BSS         66
    Persistent  42
    Stack       0

Auto Spaces:
    Space          Size  Autos    Used
    COMMON           14     12      13
    BANK0            80     19      64
    BANK1            80      0      32
    BANK2            80      0       0
    BANK3            80      0       0
    BANK4            80      0       0
    BANK5            80      0       0
    BANK6            16      0       0

Pointer List with Targets:

    vfpfcnvrt@ap	PTR PTR void  size(1) Largest target is 1
		 -> printf@ap(BANK0[1]), 

    S1171_IO_FILE$buffer	PTR unsigned char  size(1) Largest target is 0

    fputc@fp.buffer	PTR unsigned char  size(1) Largest target is 0

    fputc@fp	PTR struct _IO_FILE size(1) Largest target is 0
		 -> NULL(NULL[0]), 

    vfprintf@ap	PTR PTR void  size(1) Largest target is 1
		 -> printf@ap(BANK0[1]), 

    vfprintf@fp	PTR struct _IO_FILE size(1) Largest target is 0
		 -> NULL(NULL[0]), 

    vfprintf@fmt	PTR const unsigned char  size(2) Largest target is 9
		 -> STR_2(CODE[9]), STR_1(CODE[9]), 

    vfprintf@cfmt	PTR unsigned char  size(2) Largest target is 9
		 -> STR_2(CODE[9]), STR_1(CODE[9]), 

    vfpfcnvrt@fp	PTR struct _IO_FILE size(1) Largest target is 0
		 -> NULL(NULL[0]), 

    vfpfcnvrt@fmt	PTR PTR unsigned char  size(1) Largest target is 2
		 -> vfprintf@cfmt(BANK0[2]), 

    printf@fmt	PTR const unsigned char  size(2) Largest target is 9
		 -> STR_2(CODE[9]), STR_1(CODE[9]), 

    printf@ap	PTR void [1] size(1) Largest target is 2
		 -> ?_printf(BANK0[2]), 

    EUSART1_SetRxInterruptHandler@interruptHandler	PTR FTN()void  size(2) Largest target is 1
		 -> EUSART1_Receive_ISR(), 

    EUSART1_SetErrorHandler@interruptHandler	PTR FTN()void  size(2) Largest target is 1
		 -> EUSART1_DefaultErrorHandler(), 

    EUSART1_SetOverrunErrorHandler@interruptHandler	PTR FTN()void  size(2) Largest target is 1
		 -> EUSART1_DefaultOverrunErrorHandler(), 

    EUSART1_SetFramingErrorHandler@interruptHandler	PTR FTN()void  size(2) Largest target is 1
		 -> EUSART1_DefaultFramingErrorHandler(), 

    EUSART1_ErrorHandler	PTR FTN()void  size(2) Largest target is 1
		 -> EUSART1_DefaultErrorHandler(), Absolute function(), 

    EUSART1_OverrunErrorHandler	PTR FTN()void  size(2) Largest target is 1
		 -> EUSART1_DefaultOverrunErrorHandler(), Absolute function(), 

    EUSART1_FramingErrorHandler	PTR FTN()void  size(2) Largest target is 1
		 -> EUSART1_DefaultFramingErrorHandler(), Absolute function(), 

    IOCCF2_SetInterruptHandler@InterruptHandler	PTR FTN()void  size(2) Largest target is 1
		 -> IOCCF2_DefaultInterruptHandler(), 

    IOCCF2_InterruptHandler	PTR FTN()void  size(2) Largest target is 1
		 -> Absolute function(), IOCCF2_DefaultInterruptHandler(), 

    EUSART1_RxDefaultInterruptHandler	PTR FTN()void  size(2) Largest target is 1
		 -> EUSART1_Receive_ISR(), Absolute function(), 


Critical Paths under _main in COMMON

    _putchar->_fputc
    _vfprintf->_vfpfcnvrt
    _vfpfcnvrt->_fputc
    _fputc->_putch
    _putch->_EUSART1_Write
    _PIN_MANAGER_Initialize->_IOCCF2_SetInterruptHandler
    _EUSART1_Initialize->_EUSART1_SetErrorHandler
    _EUSART1_Initialize->_EUSART1_SetFramingErrorHandler
    _EUSART1_Initialize->_EUSART1_SetOverrunErrorHandler
    _EUSART1_Initialize->_EUSART1_SetRxInterruptHandler

Critical Paths under _INTERRUPT_InterruptManager in COMMON

    _EUSART1_RxDataHandler->_EUSART1_RxCustomHandler

Critical Paths under _main in BANK0

    _receiveSerialCallback->_putchar
    _receiveSPICallback->_printf
    _pushButtonCallback->_printf
    _printf->_vfprintf
    _vfprintf->_vfpfcnvrt

Critical Paths under _INTERRUPT_InterruptManager in BANK0

    None.

Critical Paths under _main in BANK1

    None.

Critical Paths under _INTERRUPT_InterruptManager in BANK1

    None.

Critical Paths under _main in BANK2

    None.

Critical Paths under _INTERRUPT_InterruptManager in BANK2

    None.

Critical Paths under _main in BANK3

    None.

Critical Paths under _INTERRUPT_InterruptManager in BANK3

    None.

Critical Paths under _main in BANK4

    None.

Critical Paths under _INTERRUPT_InterruptManager in BANK4

    None.

Critical Paths under _main in BANK5

    None.

Critical Paths under _INTERRUPT_InterruptManager in BANK5

    None.

Critical Paths under _main in BANK6

    None.

Critical Paths under _INTERRUPT_InterruptManager in BANK6

    None.

Call Graph Tables:

 ---------------------------------------------------------------------------------
 (Depth) Function   	        Calls       Base Space   Used Autos Params    Refs
 ---------------------------------------------------------------------------------
 (0) _main                                                 0     0      0    6523
                          _SPI1_Open
                  _SYSTEM_Initialize
                 _debouncePushButton
                 _pushButtonCallback
                 _receiveSPICallback
              _receiveSerialCallback
 ---------------------------------------------------------------------------------
 (1) _receiveSerialCallback                                2     2      0    1273
                                              2 BANK0      2     2      0
                     _SPI1_WriteByte
                            _putchar
 ---------------------------------------------------------------------------------
 (2) _putchar                                              2     0      2    1251
                                              0 BANK0      2     0      2
                              _fputc
 ---------------------------------------------------------------------------------
 (1) _receiveSPICallback                                   0     0      0    2325
                             _printf
 ---------------------------------------------------------------------------------
 (1) _pushButtonCallback                                   0     0      0    2347
                     _SPI1_WriteByte
                             _printf
 ---------------------------------------------------------------------------------
 (2) _printf                                               6     4      2    2325
                                             15 BANK0      4     2      2
                           _vfprintf
 ---------------------------------------------------------------------------------
 (3) _vfprintf                                             8     5      3    2070
                                              7 BANK0      8     5      3
                          _vfpfcnvrt
 ---------------------------------------------------------------------------------
 (4) _vfpfcnvrt                                           40    38      2    1644
                                             11 COMMON     1     1      0
                                              0 BANK0      7     5      2
                              _fputc
 ---------------------------------------------------------------------------------
 (3) _fputc                                                8     5      3    1130
                                              3 COMMON     8     5      3
                              _putch
 ---------------------------------------------------------------------------------
 (4) _putch                                                1     1      0      62
                                              2 COMMON     1     1      0
                      _EUSART1_Write
 ---------------------------------------------------------------------------------
 (5) _EUSART1_Write                                        1     1      0      31
                                              1 COMMON     1     1      0
 ---------------------------------------------------------------------------------
 (2) _SPI1_WriteByte                                       1     1      0      22
                                              1 COMMON     1     1      0
 ---------------------------------------------------------------------------------
 (1) _debouncePushButton                                   0     0      0       0
 ---------------------------------------------------------------------------------
 (1) _SYSTEM_Initialize                                    0     0      0     490
                 _EUSART1_Initialize
              _OSCILLATOR_Initialize
             _PIN_MANAGER_Initialize
                    _SPI1_Initialize
                     _WDT_Initialize
 ---------------------------------------------------------------------------------
 (2) _WDT_Initialize                                       0     0      0       0
 ---------------------------------------------------------------------------------
 (2) _SPI1_Initialize                                      0     0      0       0
 ---------------------------------------------------------------------------------
 (2) _PIN_MANAGER_Initialize                               0     0      0      98
         _IOCCF2_SetInterruptHandler
 ---------------------------------------------------------------------------------
 (3) _IOCCF2_SetInterruptHandler                           2     0      2      98
                                              1 COMMON     2     0      2
 ---------------------------------------------------------------------------------
 (2) _OSCILLATOR_Initialize                                0     0      0       0
 ---------------------------------------------------------------------------------
 (2) _EUSART1_Initialize                                   0     0      0     392
            _EUSART1_SetErrorHandler
     _EUSART1_SetFramingErrorHandler
     _EUSART1_SetOverrunErrorHandler
      _EUSART1_SetRxInterruptHandler
 ---------------------------------------------------------------------------------
 (3) _EUSART1_SetRxInterruptHandler                        2     0      2      98
                                              1 COMMON     2     0      2
 ---------------------------------------------------------------------------------
 (3) _EUSART1_SetOverrunErrorHandler                       2     0      2      98
                                              1 COMMON     2     0      2
 ---------------------------------------------------------------------------------
 (3) _EUSART1_SetFramingErrorHandler                       2     0      2      98
                                              1 COMMON     2     0      2
 ---------------------------------------------------------------------------------
 (3) _EUSART1_SetErrorHandler                              2     0      2      98
                                              1 COMMON     2     0      2
 ---------------------------------------------------------------------------------
 (1) _SPI1_Open                                            4     4      0      88
                                              1 COMMON     4     4      0
 ---------------------------------------------------------------------------------
 Estimated maximum stack depth 5
 ---------------------------------------------------------------------------------
 (Depth) Function   	        Calls       Base Space   Used Autos Params    Refs
 ---------------------------------------------------------------------------------
 (8) _INTERRUPT_InterruptManager                           0     0      0       0
                   Absolute function *
                _EUSART1_Receive_ISR *
                    _PIN_MANAGER_IOC
 ---------------------------------------------------------------------------------
 (9) _PIN_MANAGER_IOC                                      0     0      0       0
                         _IOCCF2_ISR
 ---------------------------------------------------------------------------------
 (10) _IOCCF2_ISR                                          0     0      0       0
                   Absolute function *
     _IOCCF2_DefaultInterruptHandler *
 ---------------------------------------------------------------------------------
 (11) _IOCCF2_DefaultInterruptHandler                      0     0      0       0
 ---------------------------------------------------------------------------------
 (9) _EUSART1_Receive_ISR                                  0     0      0       0
                   Absolute function *
        _EUSART1_DefaultErrorHandler *
 _EUSART1_DefaultFramingErrorHandler *
 _EUSART1_DefaultOverrunErrorHandler *
              _EUSART1_RxDataHandler
 ---------------------------------------------------------------------------------
 (10) _EUSART1_DefaultOverrunErrorHandler                  0     0      0       0
 ---------------------------------------------------------------------------------
 (10) _EUSART1_DefaultFramingErrorHandler                  0     0      0       0
 ---------------------------------------------------------------------------------
 (10) _EUSART1_DefaultErrorHandler                         0     0      0       0
              _EUSART1_RxDataHandler
 ---------------------------------------------------------------------------------
 (10) _EUSART1_RxDataHandler                               0     0      0       0
            _EUSART1_RxCustomHandler
 ---------------------------------------------------------------------------------
 (11) _EUSART1_RxCustomHandler                             1     1      0       0
                                              0 COMMON     1     1      0
 ---------------------------------------------------------------------------------
 (11) Absolute function(Fake)                              0     0      0       0
 ---------------------------------------------------------------------------------
 Estimated maximum stack depth 11
 ---------------------------------------------------------------------------------

 Call Graph Graphs:

 _main (ROOT)
   _SPI1_Open
   _SYSTEM_Initialize
     _EUSART1_Initialize
       _EUSART1_SetErrorHandler
       _EUSART1_SetFramingErrorHandler
       _EUSART1_SetOverrunErrorHandler
       _EUSART1_SetRxInterruptHandler
     _OSCILLATOR_Initialize
     _PIN_MANAGER_Initialize
       _IOCCF2_SetInterruptHandler
     _SPI1_Initialize
     _WDT_Initialize
   _debouncePushButton
   _pushButtonCallback
     _SPI1_WriteByte
     _printf
       _vfprintf
         _vfpfcnvrt
           _fputc
             _putch
               _EUSART1_Write
   _receiveSPICallback
     _printf
   _receiveSerialCallback
     _SPI1_WriteByte
     _putchar
       _fputc

 _INTERRUPT_InterruptManager (ROOT)
   Absolute function(Fake) *
   _EUSART1_Receive_ISR *
     Absolute function(Fake) *
     _EUSART1_DefaultErrorHandler *
       _EUSART1_RxDataHandler
         _EUSART1_RxCustomHandler
     _EUSART1_DefaultFramingErrorHandler *
     _EUSART1_DefaultOverrunErrorHandler *
     _EUSART1_RxDataHandler *
   _PIN_MANAGER_IOC *
     _IOCCF2_ISR
       Absolute function(Fake) *
       _IOCCF2_DefaultInterruptHandler *

 Address spaces:
Name               Size   Autos  Total    Cost      Usage
BIGRAM             1F0      0       0       0        0.0%
NULL                 0      0       0       0        0.0%
CODE                 0      0       0       0        0.0%
BITCOMMON            E      0       0       1        0.0%
BITSFR0              0      0       0       1        0.0%
SFR0                 0      0       0       1        0.0%
COMMON               E      C       D       2       92.9%
BITSFR1              0      0       0       2        0.0%
SFR1                 0      0       0       2        0.0%
BITSFR2              0      0       0       3        0.0%
SFR2                 0      0       0       3        0.0%
STACK                0      0       0       3        0.0%
BITSFR3              0      0       0       4        0.0%
SFR3                 0      0       0       4        0.0%
ABS                  0      0      6D       4        0.0%
BITBANK0            50      0       0       5        0.0%
BITSFR4              0      0       0       5        0.0%
SFR4                 0      0       0       5        0.0%
BANK0               50     13      40       6       80.0%
BITSFR5              0      0       0       6        0.0%
SFR5                 0      0       0       6        0.0%
BITBANK1            50      0       0       7        0.0%
BITSFR6              0      0       0       7        0.0%
SFR6                 0      0       0       7        0.0%
BANK1               50      0      20       8       40.0%
BITSFR7              0      0       0       8        0.0%
SFR7                 0      0       0       8        0.0%
BITBANK2            50      0       0       9        0.0%
BITSFR8              0      0       0       9        0.0%
SFR8                 0      0       0       9        0.0%
BANK2               50      0       0      10        0.0%
BITSFR9              0      0       0      10        0.0%
SFR9                 0      0       0      10        0.0%
BITBANK3            50      0       0      11        0.0%
BITSFR10             0      0       0      11        0.0%
SFR10                0      0       0      11        0.0%
BANK3               50      0       0      12        0.0%
BITSFR11             0      0       0      12        0.0%
SFR11                0      0       0      12        0.0%
BITBANK4            50      0       0      13        0.0%
BITSFR12             0      0       0      13        0.0%
SFR12                0      0       0      13        0.0%
BANK4               50      0       0      14        0.0%
BITSFR13             0      0       0      14        0.0%
SFR13                0      0       0      14        0.0%
BITBANK5            50      0       0      15        0.0%
BITSFR14             0      0       0      15        0.0%
SFR14                0      0       0      15        0.0%
BANK5               50      0       0      16        0.0%
BITSFR15             0      0       0      16        0.0%
SFR15                0      0       0      16        0.0%
BITBANK6            10      0       0      17        0.0%
BITSFR16             0      0       0      17        0.0%
SFR16                0      0       0      17        0.0%
BANK6               10      0       0      18        0.0%
BITSFR17             0      0       0      18        0.0%
SFR17                0      0       0      18        0.0%
BITSFR18             0      0       0      19        0.0%
SFR18                0      0       0      19        0.0%
DATA                 0      0      6D      19        0.0%
BITSFR19             0      0       0      20        0.0%
SFR19                0      0       0      20        0.0%
BITSFR20             0      0       0      21        0.0%
SFR20                0      0       0      21        0.0%
BITSFR21             0      0       0      22        0.0%
SFR21                0      0       0      22        0.0%
BITSFR22             0      0       0      23        0.0%
SFR22                0      0       0      23        0.0%
BITSFR23             0      0       0      24        0.0%
SFR23                0      0       0      24        0.0%
BITSFR24             0      0       0      25        0.0%
SFR24                0      0       0      25        0.0%
BITSFR25             0      0       0      26        0.0%
SFR25                0      0       0      26        0.0%
BITSFR26             0      0       0      27        0.0%
SFR26                0      0       0      27        0.0%
BITSFR27             0      0       0      28        0.0%
SFR27                0      0       0      28        0.0%
BITSFR28             0      0       0      29        0.0%
SFR28                0      0       0      29        0.0%
BITSFR29             0      0       0      30        0.0%
SFR29                0      0       0      30        0.0%
BITSFR30             0      0       0      31        0.0%
SFR30                0      0       0      31        0.0%
BITSFR31             0      0       0      32        0.0%
SFR31                0      0       0      32        0.0%
BITSFR32             0      0       0      33        0.0%
SFR32                0      0       0      33        0.0%
BITSFR33             0      0       0      34        0.0%
SFR33                0      0       0      34        0.0%
BITSFR34             0      0       0      35        0.0%
SFR34                0      0       0      35        0.0%
BITSFR35             0      0       0      36        0.0%
SFR35                0      0       0      36        0.0%
BITSFR36             0      0       0      37        0.0%
SFR36                0      0       0      37        0.0%
BITSFR37             0      0       0      38        0.0%
SFR37                0      0       0      38        0.0%
BITSFR38             0      0       0      39        0.0%
SFR38                0      0       0      39        0.0%
BITSFR39             0      0       0      40        0.0%
SFR39                0      0       0      40        0.0%
BITSFR40             0      0       0      41        0.0%
SFR40                0      0       0      41        0.0%
BITSFR41             0      0       0      42        0.0%
SFR41                0      0       0      42        0.0%
BITSFR42             0      0       0      43        0.0%
SFR42                0      0       0      43        0.0%
BITSFR43             0      0       0      44        0.0%
SFR43                0      0       0      44        0.0%
BITSFR44             0      0       0      45        0.0%
SFR44                0      0       0      45        0.0%
BITSFR45             0      0       0      46        0.0%
SFR45                0      0       0      46        0.0%
BITSFR46             0      0       0      47        0.0%
SFR46                0      0       0      47        0.0%
BITSFR47             0      0       0      48        0.0%
SFR47                0      0       0      48        0.0%
BITSFR48             0      0       0      49        0.0%
SFR48                0      0       0      49        0.0%
BITSFR49             0      0       0      50        0.0%
SFR49                0      0       0      50        0.0%
BITSFR50             0      0       0      51        0.0%
SFR50                0      0       0      51        0.0%
BITSFR51             0      0       0      52        0.0%
SFR51                0      0       0      52        0.0%
BITSFR52             0      0       0      53        0.0%
SFR52                0      0       0      53        0.0%
BITSFR53             0      0       0      54        0.0%
SFR53                0      0       0      54        0.0%
BITSFR54             0      0       0      55        0.0%
SFR54                0      0       0      55        0.0%
BITSFR55             0      0       0      56        0.0%
SFR55                0      0       0      56        0.0%
BITSFR56             0      0       0      57        0.0%
SFR56                0      0       0      57        0.0%
BITSFR57             0      0       0      58        0.0%
SFR57                0      0       0      58        0.0%
BITSFR58             0      0       0      59        0.0%
SFR58                0      0       0      59        0.0%
BITSFR59             0      0       0      60        0.0%
SFR59                0      0       0      60        0.0%
BITSFR60             0      0       0      61        0.0%
SFR60                0      0       0      61        0.0%
BITSFR61             0      0       0      62        0.0%
SFR61                0      0       0      62        0.0%
BITSFR62             0      0       0      63        0.0%
SFR62                0      0       0      63        0.0%
BITSFR63             0      0       0      64        0.0%
SFR63                0      0       0      64        0.0%


Microchip Technology PIC Macro Assembler V2.32 build 20210201212658 
Symbol Table                                                                                   Tue Jul 13 14:36:51 2021

                            SPI1_WriteByte@byte 0071                                              l62 0365  
                                            l65 0378                                              l59 02F4  
                                           l331 034F                                             l156 0198  
                                           l340 0279                                             l334 035B  
                                           l422 0360                                             l430 02A9  
                                           l342 0294                                             l167 0343  
                                           l183 02BE                                             l328 0355  
                                           l176 0278                                             l337 0349  
                                           l266 0232                                             l290 030F  
                                           l293 0317                                             l385 02D2  
                                           l299 033D                                             l389 0110  
                                           l999 02E4                                             u560 02AF  
                                           u800 011B                                             u561 02AE  
                                           u801 011A                                             u650 00C8  
                                           u570 02B9                                             u810 012A  
                                           u651 00C7                                             u571 02B8  
                                           u811 0129                                             u820 0147  
                                           u821 0146                                             u830 0059  
                                           u910 02A7                                             u831 0058  
                                           u911 02A4                                             u840 007A  
                                           u904 0285                                             u825 0143  
                                           u841 0079                                             u850 0256  
                                           u930 01E0                                             u851 0255  
                                           u931 01DF                                             u780 0314  
                                           u860 0260                                             u924 02A9  
                                           u940 01E8                                             u781 0313  
                                           u861 025F                                             u941 01E7  
                                           u790 0116                                             u870 0276  
                                           u950 01F2                                             u791 0115  
                                           u871 0273                                             u951 01F1  
                                           u960 01FB                                             u961 01FA  
                                           u890 0283                                             u891 0280  
                                           u884 0278                                             wreg 0009  
              ??_IOCCF2_DefaultInterruptHandler 0070                 ?_IOCCF2_DefaultInterruptHandler 0070  
                                          l1032 00C1                                            l1050 0156  
                                          l1038 025A                                            l1063 030D  
                                          l1601 0174                                            l1611 017D  
                                          l1603 0176                                            l1541 0344  
                                          l1621 018B                                            l1613 017E  
                                          l1605 0178                                            l1701 02B3  
                                          l1543 0350                                            l1631 0361  
                                          l1623 018E                                            l1615 017F  
                                          l1607 017A                                            l1703 02B9  
                                          l1545 034A                                            l1641 020F  
                                          l1537 033E                                            l1625 0190  
                                          l1617 0186                                            l1609 017C  
                                          l1633 0376                                            l1705 02BA  
                                          l1547 0356                                            l1651 021D  
                                          l1643 0211                                            l1635 0203  
                                          l1627 0193                                            l1619 0188  
                                          l1571 02D0                                            l1563 02BF  
                                          l1653 0224                                            l1645 0213  
                                          l1637 0205                                            l1629 0195  
                                          l1581 0161                                            l1573 0157  
                                          l1565 02C9                                            l1901 02D8  
                                          l1655 0230                                            l1647 0215  
                                          l1639 020C                                            l1591 016D  
                                          l1583 0164                                            l1575 015B  
                                          l1567 02CB                                            l1663 035D  
                                          l1911 0260                                            l1761 00E7  
                                          l1649 0216                                            l1593 016E  
                                          l1585 0166                                            l1577 015D  
                                          l1569 02CE                                            l1833 030F  
                                          l1841 0116                                            l1913 0264  
                                          l1905 0304                                            l1921 028F  
                                          l1763 00F6                                            l1755 00C3  
                                          l1595 016F                                            l1587 0168  
                                          l1579 015F                                            l1683 02E5  
                                          l1835 0314                                            l1851 014F  
                                          l1843 011B                                            l1915 026C  
                                          l1923 0295                                            l1931 01D6  
                                          l1765 010E                                            l1757 00C8  
                                          l1597 0170                                            l1589 016A  
                                          l1685 02EB                                            l1837 0339  
                                          l1845 0120                                            l1861 0065  
                                          l1909 025B                                            l1925 029D  
                                          l1917 0279                                            l1941 01E8  
                                          l1933 01D7                                            l1759 00E6  
                                          l1599 0172                                            l1687 02EE  
                                          l1847 012A                                            l1839 0111  
                                          l1863 0069                                            l1855 0047  
                                          l1919 0285                                            l1951 01F5  
                                          l1943 01EB                                            l1935 01DB  
                                          l1927 01D2                                            l1697 02AA  
                                          l1849 0147                                            l1881 00B7  
                                          l1865 007A                                            l1873 0093  
                                          l1857 0059                                            l1953 01F7  
                                          l1945 01ED                                            l1937 01E0  
                                          l1929 01D5                                            l1699 02AF  
                                          l1875 009B                                            l1867 0082  
                                          l1859 0061                                            l1891 023C  
                                          l1955 01FB                                            l1939 01E3  
                                          l1947 01EE                                            l1869 008D  
                                          l1893 024D                                            l1957 01FE  
                                          l1949 01F2                                            l1879 009E  
                                          l1895 0256                                            l1887 0235  
                                          l1889 0239                                            l1899 02D3  
                                          STR_1 0318                                            STR_2 0318  
                                          _LATA 0018                                            _LATB 0019  
                                          _LATC 001A                                            i1l34 0025  
                                          _WPUA 1F39                                            _WPUB 1F44  
                                          _WPUC 1F4F                                   _EUSART1_Write 030E  
                                          _dbuf 00A0                                            _main 01D2  
                                          _prec 0034                                            _nout 0030  
                                          fsr0h 0005                                            fsr1h 0007  
                                          indf0 0000                                            fsr0l 0004  
                                          indf1 0001                                            fsr1l 0006  
                                          btemp 007E                                            start 0027  
                         _receiveSerialCallback 0279                              _pushButtonCallback 025B  
                __size_of_OSCILLATOR_Initialize 0005                   __end_of_OSCILLATOR_Initialize 0366  
                           __size_of_IOCCF2_ISR 000F                           _eusart1RxStatusBuffer 0020  
                                         ?_main 0070                SPI1_Open@spi1UniqueConfiguration 0074  
                                         _FLAGS 003E                                           i1l312 0331  
                                         i1l160 0329                                           i1l322 036D  
                                         i1l306 01D1                                           i1l170 037B  
                                         i1l164 0303                                           i1l309 0375  
                                         i1l325 0371                                           i1l319 037E  
                                         _OSCEN 0891                                    vfpfcnvrt@fmt 0041  
                                         u51_20 02FC                                           u51_21 02FB  
                                         u60_20 01A3                                           u52_20 0326  
                                         u60_21 01A2                                           u52_21 0325  
                                         u61_20 01B3                                           u61_21 01B2  
                                         u62_20 01C7                                           u70_20 0016  
                                         u62_21 01C6                                           u70_21 0015  
                                         u71_20 001B                                           u71_21 001A  
                                         u72_20 001F                                           u72_21 001E  
                                         _TRISA 0012                                           _TRISB 0013  
                                         _TRISC 0014                                           u68_20 000B  
                                         u68_21 000A                                           u69_20 000F  
                                         u69_21 000E                             ?_pushButtonCallback 0070  
                            __size_of_SPI1_Open 004F                         __end_of_PIN_MANAGER_IOC 032A  
                                         _flags 0036                                  _WDT_Initialize 0376  
                                         _fputc 0111                                           _width 0032  
                                         _putch 0338                                  ?_EUSART1_Write 0070  
                                         pclath 000A                                 __end_of_putchar 030E  
                                         status 0003                                           wtemp0 007E  
    __end_of_EUSART1_DefaultFramingErrorHandler 037F     __size_of_EUSART1_DefaultFramingErrorHandler 0001  
          ??_EUSART1_DefaultFramingErrorHandler 0070             ?_EUSART1_DefaultFramingErrorHandler 0070  
            _EUSART1_DefaultFramingErrorHandler 037E                        __size_of_SPI1_Initialize 0014  
                       __size_of_SPI1_WriteByte 0005                            ??_pushButtonCallback 007C  
                               __initialization 0029                      __end_of_EUSART1_Initialize 0233  
                                  __end_of_main 0203                __size_of_EUSART1_RxCustomHandler 0008  
                   ?_INTERRUPT_InterruptManager 0070                                          ??_main 007C  
                       _IOCCF2_InterruptHandler 005A                          __end_of_WDT_Initialize 0379  
                    __end_of_receiveSPICallback 02AA                                          ?_fputc 0073  
                                        _ANSELA 1F38                                          ?_putch 0070  
                                        _ANSELB 1F43                                          _ANSELC 1F4E  
                                        _RC1REG 0119                                          _RC0PPS 1F20  
                                        _RC1STA 011D                                          _RC4PPS 1F24  
                                        i1l1501 032A                                          i1l1503 0330  
                                        _ODCONA 1F3A                                          _ODCONB 1F45  
                                        _ODCONC 1F50                                          _RC6PPS 1F26  
                                        i1l1731 019E                                          i1l1539 0379  
                                        i1l1549 0372                                          i1l1741 01B8  
                                        i1l1733 01A3                                          i1l1661 0301  
                                        i1l1671 036A                                          i1l1743 01BE  
                                        i1l1735 01A8                                          i1l1673 036E  
                                        i1l1745 01C7                                          i1l1737 01AE  
                                        i1l1729 0199                                          i1l1657 02F5  
                                        i1l1681 0326                                          i1l1747 01CE  
                                        i1l1739 01B3                                          i1l1659 02FC  
                                        i1l1781 0016                                          i1l1773 0006  
                                        i1l1679 0321                                          i1l1783 001B  
                                        i1l1775 000B                                          i1l1785 001F  
                                        i1l1777 000F                                          i1l1779 0012  
                                        _INLVLA 1F3C                                          _INLVLB 1F47  
                                        _INLVLC 1F52                                          _OSCFRQ 0893  
                                        _RX1PPS 1ECB                                          _TX1REG 011A  
                                        _WDTCON 080C                                          _TX1STA 011E  
                             __end_of_SPI1_Open 0111                                    vfprintf@cfmt 004E  
                        ?_receiveSerialCallback 0070                        ?_EUSART1_SetErrorHandler 0071  
                                        _printf 02D3                ??_EUSART1_SetOverrunErrorHandler 0073  
               ?_EUSART1_SetOverrunErrorHandler 0071                                          fputc@c 0073  
                               ?_WDT_Initialize 0070                                __end_of_vfprintf 025B  
                               ??_EUSART1_Write 0071                                       ??_putchar 007B  
    IOCCF2_SetInterruptHandler@InterruptHandler 0071                                ?_PIN_MANAGER_IOC 0070  
                               _eusart1RxBuffer 0028                                    ??_IOCCF2_ISR 0070  
                             _SYSTEM_Initialize 02E5                         __end_of__initialization 0042  
                            ?_SYSTEM_Initialize 0070                  __size_of_EUSART1_RxDataHandler 0004  
                 __end_of_EUSART1_RxDataHandler 0376                                  __pcstackCOMMON 0070  
                                  __pidataBANK0 037C                             ??_SYSTEM_Initialize 0073  
                                 __end_of_fputc 0157                               ??_SPI1_Initialize 0071  
                   __size_of_debouncePushButton 0015                                   __end_of_putch 033E  
                            __end_of_IOCCF2_ISR 0304                              _spi1_configuration 0366  
                   __end_of_EUSART1_Receive_ISR 01D2                                         ??_fputc 0076  
                     __end_of_SYSTEM_Initialize 02F5                                         ??_putch 0072  
                                 _eusart1RxHead 007C                                   _eusart1RxTail 003A  
                                    __pbssBANK0 0020                                      __pbssBANK1 00A0  
               ??_EUSART1_SetRxInterruptHandler 0073                                  _SPI1_WriteByte 035C  
        __end_of_IOCCF2_DefaultInterruptHandler 037C         __size_of_IOCCF2_DefaultInterruptHandler 0003  
                _IOCCF2_DefaultInterruptHandler 0379                 __end_of_EUSART1_SetErrorHandler 035C  
                       _EUSART1_RxCustomHandler 032A                                      __pmaintext 01D2  
                                    __pintentry 0004                                         ?_printf 0050  
        __end_of_EUSART1_SetFramingErrorHandler 0356         __size_of_EUSART1_SetFramingErrorHandler 0006  
                _EUSART1_SetFramingErrorHandler 0350                    ?_EUSART1_DefaultErrorHandler 0070  
                                       _SP1BRGH 011C                                         _SP1BRGL 011B  
                            __size_of_vfpfcnvrt 007C                                         _OSCTUNE 0892  
                                       _SSP1ADD 018D                                         _SLRCONA 1F3B  
                                       _SLRCONB 1F46                                         _SLRCONC 1F51  
                                       _SSP1BUF 018C                                         _SPIRead 0040  
                        __end_of_SPI1_WriteByte 0361                                       ?_vfprintf 0048  
                                       __ptext1 0279                                         __ptext2 0304  
                                       __ptext3 0295                                         __ptext4 025B  
                                       __ptext5 02D3                                         __ptext6 0233  
                                       __ptext7 0046                                         __ptext8 0111  
                                       __ptext9 0338                                 __size_of_printf 0012  
                         _OSCILLATOR_Initialize 0361                              _EUSART1_Initialize 0203  
                      ??_PIN_MANAGER_Initialize 0073                                       _IOCCFbits 1F55  
                                     _IOCCNbits 1F54                                       _IOCCPbits 1F53  
                 ??_EUSART1_DefaultErrorHandler 0071                                         _putchar 0304  
                    __size_of_SYSTEM_Initialize 0010                                         clrloop0 0333  
                          end_of_initialization 0042                             ?_EUSART1_Initialize 0070  
                               ?_SPI1_WriteByte 0070                                         fputc@fp 0075  
                   _EUSART1_OverrunErrorHandler 0056                       ??_EUSART1_RxCustomHandler 0070  
                       ??_receiveSerialCallback 0043           __end_of_EUSART1_SetRxInterruptHandler 034A  
        __size_of_EUSART1_SetRxInterruptHandler 0006                   _EUSART1_SetRxInterruptHandler 0344  
                   __size_of_pushButtonCallback 001E                              _receiveSPICallback 0295  
                                    _serialRead 003F                               __end_of_vfpfcnvrt 00C2  
                                    ??_vfprintf 004B                                       _SPI1_Open 00C2  
                          ??_EUSART1_Initialize 0073                             ?_receiveSPICallback 0070  
                              ??_WDT_Initialize 0071                                       _TRISCbits 0014  
              __size_of_EUSART1_SetErrorHandler 0006                    ??_IOCCF2_SetInterruptHandler 0073  
                           EUSART1_Write@txData 0071                            ??_receiveSPICallback 007C  
                               _SPI1_Initialize 02BF            __size_of_EUSART1_DefaultErrorHandler 0004  
                                    ?_SPI1_Open 0070                                     vfpfcnvrt@ap 0042  
                                   vfpfcnvrt@fp 007B                          ?_OSCILLATOR_Initialize 0070  
           __size_of_IOCCF2_SetInterruptHandler 0006                                  __end_of_printf 02E5  
                           start_initialization 0029                 __size_of_PIN_MANAGER_Initialize 0042  
 EUSART1_SetRxInterruptHandler@interruptHandler 0071                                     putch@txData 0072  
                         __end_of_EUSART1_Write 0318                        __size_of_PIN_MANAGER_IOC 0009  
                                   vfprintf@fmt 0048                      __end_of_debouncePushButton 02BF  
                         _EUSART1_RxDataHandler 0372                  ?_EUSART1_SetRxInterruptHandler 0071  
                                   __pdataBANK0 005E                                        ??_printf 0052  
                                _eusart1RxCount 0039                                     __pbssCOMMON 007C  
             _EUSART1_RxDefaultInterruptHandler 005C                                       ___latbits 0001  
                                 __pcstackBANK0 0041                         __end_of_SPI1_Initialize 02D3  
              ??_EUSART1_SetFramingErrorHandler 0073                 ?_EUSART1_SetFramingErrorHandler 0071  
                  __size_of_EUSART1_Receive_ISR 0039                                       __pnvBANK0 0054  
                        _PIN_MANAGER_Initialize 0157                                     ??_SPI1_Open 0071  
                  ??_INTERRUPT_InterruptManager 0071                               __size_of_vfprintf 0028  
                                      _BAUD1CON 011F      __end_of_EUSART1_DefaultOverrunErrorHandler 036E  
   __size_of_EUSART1_DefaultOverrunErrorHandler 0004            ??_EUSART1_DefaultOverrunErrorHandler 0070  
           ?_EUSART1_DefaultOverrunErrorHandler 0070              _EUSART1_DefaultOverrunErrorHandler 036A  
                          _EUSART1_ErrorHandler 0054                         _EUSART1_SetErrorHandler 0356  
            __end_of_IOCCF2_SetInterruptHandler 0344                      _IOCCF2_SetInterruptHandler 033E  
                              ??_SPI1_WriteByte 0071                                        ?_putchar 0041  
                                __size_of_fputc 0046                                  __size_of_putch 0006  
                                      _LATAbits 0018         EUSART1_SetErrorHandler@interruptHandler 0071  
                                     clear_ram0 0332                                        _PIE0bits 0716  
                                      _PIE1bits 0717             __size_of_INTERRUPT_InterruptManager 0023  
                __size_of_receiveSerialCallback 001C                                        _PIR0bits 070C  
                                      _PIR1bits 070D                   __end_of_receiveSerialCallback 0295  
                        ?_EUSART1_RxDataHandler 0070                                        _SSP1CON1 0190  
                                      _SSP1CON2 0191                                        _SSP1STAT 018F  
                             ??_PIN_MANAGER_IOC 0070                                       _vfpfcnvrt 0046  
                              ?_SPI1_Initialize 0070                      __end_of_pushButtonCallback 0279  
                                    vfprintf@ap 004A                                      vfprintf@fp 004D  
                       ??_OSCILLATOR_Initialize 0071                     __size_of_EUSART1_Initialize 0030  
                                    ?_vfpfcnvrt 0041                       ??_EUSART1_SetErrorHandler 0073  
           __end_of_EUSART1_DefaultErrorHandler 0372                     _EUSART1_DefaultErrorHandler 036E  
                       debouncePushButton@count 005E                                        __ptext10 030E  
                                      __ptext11 035C                                        __ptext20 0344  
                                      __ptext12 02AA                                        __ptext21 034A  
                                      __ptext13 02E5                                        __ptext30 036A  
                                      __ptext22 0350                                        __ptext14 0376  
                                      __ptext31 037E                                        __ptext23 0356  
                                      __ptext15 02BF                                        __ptext32 036E  
                                      __ptext24 00C2                                        __ptext16 0157  
                                      __ptext33 0372                                        __ptext17 033E  
                                      __ptext34 032A                                        __ptext26 0321  
                                      __ptext18 0361                                        __ptext27 02F5  
                                      __ptext19 0203                                        __ptext28 0379  
                                      __ptext29 0199                                    _SSP1CON1bits 0190  
                              __size_of_putchar 000A                        ?_EUSART1_RxCustomHandler 0070  
                   __size_of_receiveSPICallback 0015                                      _IOCCF2_ISR 02F5  
                                 __size_of_main 0031                                      _RC1STAbits 011D  
EUSART1_SetOverrunErrorHandler@interruptHandler 0071                                        int$flags 007E  
                                  _spiReadValue 003C                                        _vfprintf 0233  
            __end_of_INTERRUPT_InterruptManager 0027                      _INTERRUPT_InterruptManager 0004  
                                     printf@fmt 0050                                 _serialReadValue 003D  
                   _EUSART1_FramingErrorHandler 0058                             _EUSART1_Receive_ISR 0199  
                                    _INTCONbits 000B                              _debouncePushButton 02AA  
                       __size_of_WDT_Initialize 0003                             ?_debouncePushButton 0070  
                                      intlevel1 0000                            ?_EUSART1_Receive_ISR 0070  
                       ?_PIN_MANAGER_Initialize 0070          __end_of_EUSART1_SetOverrunErrorHandler 0350  
       __size_of_EUSART1_SetOverrunErrorHandler 0006                  _EUSART1_SetOverrunErrorHandler 034A  
                                      printf@ap 0053  EUSART1_SetFramingErrorHandler@interruptHandler 0071  
                          ??_debouncePushButton 0071                                     ??_vfpfcnvrt 0043  
                                      putchar@c 0041                          __size_of_EUSART1_Write 000A  
                            _eusart1RxLastError 0038                                     _requestType 003B  
                                 __pstringtext1 0366                                   __pstringtext2 0318  
                                 __pstringtext3 0000                                      _SSP1DATPPS 1EC6  
                                    _SSP1CLKPPS 1EC5                 __end_of_EUSART1_RxCustomHandler 0332  
                   ?_IOCCF2_SetInterruptHandler 0071                                      _TX1STAbits 011E  
                                   ?_IOCCF2_ISR 0070                           ??_EUSART1_Receive_ISR 0071  
                __end_of_PIN_MANAGER_Initialize 0199                                 _PIN_MANAGER_IOC 0321  
                       ??_EUSART1_RxDataHandler 0071                      __end_of_spi1_configuration 036A  
